
main.o:     file format elf32-tradlittlemips


Disassembly of section .text:

80000000 <__start>:
80000000:	3c1d8800 	lui	$29,0x8800
80000004:	041109af 	bgezal	$0,800026c4 <main>
80000008:	00000000 	sll	$0,$0,0x0

8000000c <boot>:
8000000c:	3c158000 	lui	$21,0x8000
80000010:	02a00008 	jr	$21
80000014:	00000000 	sll	$0,$0,0x0
	...

80000380 <end>:
80000380:	1000ffff 	beqz	$0,80000380 <end>
80000384:	00000000 	sll	$0,$0,0x0
	...

80000390 <_Z12write_serialh>:
80000390:	27bdffe8 	addiu	$29,$29,-24
80000394:	afbe0014 	sw	$30,20($29)
80000398:	03a0f025 	or	$30,$29,$0
8000039c:	00801025 	or	$2,$4,$0
800003a0:	a3c20018 	sb	$2,24($30)
800003a4:	3c02bfd0 	lui	$2,0xbfd0
800003a8:	344203fc 	ori	$2,$2,0x3fc
800003ac:	afc20008 	sw	$2,8($30)
800003b0:	8fc20008 	lw	$2,8($30)
800003b4:	90420000 	lbu	$2,0($2)
800003b8:	30420001 	andi	$2,$2,0x1
800003bc:	14400003 	bnez	$2,800003cc <_Z12write_serialh+0x3c>
800003c0:	00000000 	sll	$0,$0,0x0
800003c4:	1000fff7 	beqz	$0,800003a4 <_Z12write_serialh+0x14>
800003c8:	00000000 	sll	$0,$0,0x0
800003cc:	00000000 	sll	$0,$0,0x0
800003d0:	3c02bfd0 	lui	$2,0xbfd0
800003d4:	344203f8 	ori	$2,$2,0x3f8
800003d8:	afc2000c 	sw	$2,12($30)
800003dc:	8fc2000c 	lw	$2,12($30)
800003e0:	93c30018 	lbu	$3,24($30)
800003e4:	a0430000 	sb	$3,0($2)
800003e8:	00000000 	sll	$0,$0,0x0
800003ec:	03c0e825 	or	$29,$30,$0
800003f0:	8fbe0014 	lw	$30,20($29)
800003f4:	27bd0018 	addiu	$29,$29,24
800003f8:	03e00008 	jr	$31
800003fc:	00000000 	sll	$0,$0,0x0

80000400 <putchar>:
80000400:	27bdffe0 	addiu	$29,$29,-32
80000404:	afbf001c 	sw	$31,28($29)
80000408:	afbe0018 	sw	$30,24($29)
8000040c:	03a0f025 	or	$30,$29,$0
80000410:	afc40020 	sw	$4,32($30)
80000414:	8fc20020 	lw	$2,32($30)
80000418:	304200ff 	andi	$2,$2,0xff
8000041c:	00402025 	or	$4,$2,$0
80000420:	0c0000e4 	jal	80000390 <_Z12write_serialh>
80000424:	00000000 	sll	$0,$0,0x0
80000428:	8fc20020 	lw	$2,32($30)
8000042c:	03c0e825 	or	$29,$30,$0
80000430:	8fbf001c 	lw	$31,28($29)
80000434:	8fbe0018 	lw	$30,24($29)
80000438:	27bd0020 	addiu	$29,$29,32
8000043c:	03e00008 	jr	$31
80000440:	00000000 	sll	$0,$0,0x0

80000444 <_Z9putstringPKc>:
80000444:	27bdffd8 	addiu	$29,$29,-40
80000448:	afbf0024 	sw	$31,36($29)
8000044c:	afbe0020 	sw	$30,32($29)
80000450:	03a0f025 	or	$30,$29,$0
80000454:	afc40028 	sw	$4,40($30)
80000458:	8fc20028 	lw	$2,40($30)
8000045c:	90420000 	lbu	$2,0($2)
80000460:	a3c20018 	sb	$2,24($30)
80000464:	83c20018 	lb	$2,24($30)
80000468:	0002102b 	sltu	$2,$0,$2
8000046c:	304200ff 	andi	$2,$2,0xff
80000470:	10400011 	beqz	$2,800004b8 <_Z9putstringPKc+0x74>
80000474:	00000000 	sll	$0,$0,0x0
80000478:	83c30018 	lb	$3,24($30)
8000047c:	2402000a 	addiu	$2,$0,10
80000480:	14620004 	bne	$3,$2,80000494 <_Z9putstringPKc+0x50>
80000484:	00000000 	sll	$0,$0,0x0
80000488:	2404000d 	addiu	$4,$0,13
8000048c:	0c000100 	jal	80000400 <putchar>
80000490:	00000000 	sll	$0,$0,0x0
80000494:	83c20018 	lb	$2,24($30)
80000498:	00402025 	or	$4,$2,$0
8000049c:	0c000100 	jal	80000400 <putchar>
800004a0:	00000000 	sll	$0,$0,0x0
800004a4:	8fc20028 	lw	$2,40($30)
800004a8:	24420001 	addiu	$2,$2,1
800004ac:	afc20028 	sw	$2,40($30)
800004b0:	1000ffe9 	beqz	$0,80000458 <_Z9putstringPKc+0x14>
800004b4:	00000000 	sll	$0,$0,0x0
800004b8:	00001025 	or	$2,$0,$0
800004bc:	03c0e825 	or	$29,$30,$0
800004c0:	8fbf0024 	lw	$31,36($29)
800004c4:	8fbe0020 	lw	$30,32($29)
800004c8:	27bd0028 	addiu	$29,$29,40
800004cc:	03e00008 	jr	$31
800004d0:	00000000 	sll	$0,$0,0x0

800004d4 <_Z9printbaseliii>:
800004d4:	27bdff90 	addiu	$29,$29,-112
800004d8:	afbf006c 	sw	$31,108($29)
800004dc:	afbe0068 	sw	$30,104($29)
800004e0:	03a0f025 	or	$30,$29,$0
800004e4:	afc40070 	sw	$4,112($30)
800004e8:	afc50074 	sw	$5,116($30)
800004ec:	afc60078 	sw	$6,120($30)
800004f0:	afc7007c 	sw	$7,124($30)
800004f4:	8fc2007c 	lw	$2,124($30)
800004f8:	1040000c 	beqz	$2,8000052c <_Z9printbaseliii+0x58>
800004fc:	00000000 	sll	$0,$0,0x0
80000500:	8fc20070 	lw	$2,112($30)
80000504:	04410009 	bgez	$2,8000052c <_Z9printbaseliii+0x58>
80000508:	00000000 	sll	$0,$0,0x0
8000050c:	8fc20070 	lw	$2,112($30)
80000510:	00021023 	negu	$2,$2
80000514:	afc2001c 	sw	$2,28($30)
80000518:	2404002d 	addiu	$4,$0,45
8000051c:	0c000100 	jal	80000400 <putchar>
80000520:	00000000 	sll	$0,$0,0x0
80000524:	10000003 	beqz	$0,80000534 <_Z9printbaseliii+0x60>
80000528:	00000000 	sll	$0,$0,0x0
8000052c:	8fc20070 	lw	$2,112($30)
80000530:	afc2001c 	sw	$2,28($30)
80000534:	afc00024 	sw	$0,36($30)
80000538:	8fc2001c 	lw	$2,28($30)
8000053c:	10400018 	beqz	$2,800005a0 <_Z9printbaseliii+0xcc>
80000540:	00000000 	sll	$0,$0,0x0
80000544:	8fc20078 	lw	$2,120($30)
80000548:	8fc3001c 	lw	$3,28($30)
8000054c:	004001f4 	teq	$2,$0,0x7
80000550:	0062001b 	divu	$0,$3,$2
80000554:	00001010 	mfhi	$2
80000558:	00401825 	or	$3,$2,$0
8000055c:	8fc20024 	lw	$2,36($30)
80000560:	7c031c20 	seb	$3,$3
80000564:	27c40018 	addiu	$4,$30,24
80000568:	00821021 	addu	$2,$4,$2
8000056c:	a0430010 	sb	$3,16($2)
80000570:	8fc20078 	lw	$2,120($30)
80000574:	8fc3001c 	lw	$3,28($30)
80000578:	004001f4 	teq	$2,$0,0x7
8000057c:	0062001b 	divu	$0,$3,$2
80000580:	00001010 	mfhi	$2
80000584:	00001012 	mflo	$2
80000588:	afc2001c 	sw	$2,28($30)
8000058c:	8fc20024 	lw	$2,36($30)
80000590:	24420001 	addiu	$2,$2,1
80000594:	afc20024 	sw	$2,36($30)
80000598:	1000ffe7 	beqz	$0,80000538 <_Z9printbaseliii+0x64>
8000059c:	00000000 	sll	$0,$0,0x0
800005a0:	8fc30074 	lw	$3,116($30)
800005a4:	8fc20024 	lw	$2,36($30)
800005a8:	0043102a 	slt	$2,$2,$3
800005ac:	10400004 	beqz	$2,800005c0 <_Z9printbaseliii+0xec>
800005b0:	00000000 	sll	$0,$0,0x0
800005b4:	8fc20074 	lw	$2,116($30)
800005b8:	10000002 	beqz	$0,800005c4 <_Z9printbaseliii+0xf0>
800005bc:	00000000 	sll	$0,$0,0x0
800005c0:	8fc20024 	lw	$2,36($30)
800005c4:	afc20018 	sw	$2,24($30)
800005c8:	8fc20018 	lw	$2,24($30)
800005cc:	18400021 	blez	$2,80000654 <_Z9printbaseliii+0x180>
800005d0:	00000000 	sll	$0,$0,0x0
800005d4:	8fc20024 	lw	$2,36($30)
800005d8:	8fc30018 	lw	$3,24($30)
800005dc:	0043102a 	slt	$2,$2,$3
800005e0:	14400008 	bnez	$2,80000604 <_Z9printbaseliii+0x130>
800005e4:	00000000 	sll	$0,$0,0x0
800005e8:	8fc20018 	lw	$2,24($30)
800005ec:	2442ffff 	addiu	$2,$2,-1
800005f0:	27c30018 	addiu	$3,$30,24
800005f4:	00621021 	addu	$2,$3,$2
800005f8:	80420010 	lb	$2,16($2)
800005fc:	10000002 	beqz	$0,80000608 <_Z9printbaseliii+0x134>
80000600:	00000000 	sll	$0,$0,0x0
80000604:	00001025 	or	$2,$0,$0
80000608:	afc20020 	sw	$2,32($30)
8000060c:	8fc20020 	lw	$2,32($30)
80000610:	2842000a 	slti	$2,$2,10
80000614:	10400005 	beqz	$2,8000062c <_Z9printbaseliii+0x158>
80000618:	00000000 	sll	$0,$0,0x0
8000061c:	8fc20020 	lw	$2,32($30)
80000620:	24420030 	addiu	$2,$2,48
80000624:	10000003 	beqz	$0,80000634 <_Z9printbaseliii+0x160>
80000628:	00000000 	sll	$0,$0,0x0
8000062c:	8fc20020 	lw	$2,32($30)
80000630:	24420057 	addiu	$2,$2,87
80000634:	00402025 	or	$4,$2,$0
80000638:	0c000100 	jal	80000400 <putchar>
8000063c:	00000000 	sll	$0,$0,0x0
80000640:	8fc20018 	lw	$2,24($30)
80000644:	2442ffff 	addiu	$2,$2,-1
80000648:	afc20018 	sw	$2,24($30)
8000064c:	1000ffde 	beqz	$0,800005c8 <_Z9printbaseliii+0xf4>
80000650:	00000000 	sll	$0,$0,0x0
80000654:	00001025 	or	$2,$0,$0
80000658:	03c0e825 	or	$29,$30,$0
8000065c:	8fbf006c 	lw	$31,108($29)
80000660:	8fbe0068 	lw	$30,104($29)
80000664:	27bd0070 	addiu	$29,$29,112
80000668:	03e00008 	jr	$31
8000066c:	00000000 	sll	$0,$0,0x0

80000670 <_Z6memcpyPhS_j>:
80000670:	27bdffe8 	addiu	$29,$29,-24
80000674:	afbe0014 	sw	$30,20($29)
80000678:	03a0f025 	or	$30,$29,$0
8000067c:	afc40018 	sw	$4,24($30)
80000680:	afc5001c 	sw	$5,28($30)
80000684:	afc60020 	sw	$6,32($30)
80000688:	afc00008 	sw	$0,8($30)
8000068c:	8fc20008 	lw	$2,8($30)
80000690:	8fc30020 	lw	$3,32($30)
80000694:	0043102b 	sltu	$2,$2,$3
80000698:	10400010 	beqz	$2,800006dc <_Z6memcpyPhS_j+0x6c>
8000069c:	00000000 	sll	$0,$0,0x0
800006a0:	8fc2001c 	lw	$2,28($30)
800006a4:	90430000 	lbu	$3,0($2)
800006a8:	8fc20018 	lw	$2,24($30)
800006ac:	a0430000 	sb	$3,0($2)
800006b0:	8fc20008 	lw	$2,8($30)
800006b4:	24420001 	addiu	$2,$2,1
800006b8:	afc20008 	sw	$2,8($30)
800006bc:	8fc20018 	lw	$2,24($30)
800006c0:	24420001 	addiu	$2,$2,1
800006c4:	afc20018 	sw	$2,24($30)
800006c8:	8fc2001c 	lw	$2,28($30)
800006cc:	24420001 	addiu	$2,$2,1
800006d0:	afc2001c 	sw	$2,28($30)
800006d4:	1000ffed 	beqz	$0,8000068c <_Z6memcpyPhS_j+0x1c>
800006d8:	00000000 	sll	$0,$0,0x0
800006dc:	00000000 	sll	$0,$0,0x0
800006e0:	03c0e825 	or	$29,$30,$0
800006e4:	8fbe0014 	lw	$30,20($29)
800006e8:	27bd0018 	addiu	$29,$29,24
800006ec:	03e00008 	jr	$31
800006f0:	00000000 	sll	$0,$0,0x0

800006f4 <_Z19HAL_ReceiveIPPacketiPhjS_S_xPi>:
800006f4:	27bdffb8 	addiu	$29,$29,-72
800006f8:	afbf0044 	sw	$31,68($29)
800006fc:	afbe0040 	sw	$30,64($29)
80000700:	03a0f025 	or	$30,$29,$0
80000704:	afc40048 	sw	$4,72($30)
80000708:	afc5004c 	sw	$5,76($30)
8000070c:	afc60050 	sw	$6,80($30)
80000710:	afc70054 	sw	$7,84($30)
80000714:	3c02bb00 	lui	$2,0xbb00
80000718:	344201ff 	ori	$2,$2,0x1ff
8000071c:	afc20028 	sw	$2,40($30)
80000720:	8fc20028 	lw	$2,40($30)
80000724:	90420000 	lbu	$2,0($2)
80000728:	a3c2002c 	sb	$2,44($30)
8000072c:	93c2002c 	lbu	$2,44($30)
80000730:	14400004 	bnez	$2,80000744 <_Z19HAL_ReceiveIPPacketiPhjS_S_xPi+0x50>
80000734:	00000000 	sll	$0,$0,0x0
80000738:	00001025 	or	$2,$0,$0
8000073c:	10000096 	beqz	$0,80000998 <_Z19HAL_ReceiveIPPacketiPhjS_S_xPi+0x2a4>
80000740:	00000000 	sll	$0,$0,0x0
80000744:	3c028000 	lui	$2,0x8000
80000748:	24443ef0 	addiu	$4,$2,16112
8000074c:	0c000111 	jal	80000444 <_Z9putstringPKc>
80000750:	00000000 	sll	$0,$0,0x0
80000754:	8fc20028 	lw	$2,40($30)
80000758:	90420000 	lbu	$2,0($2)
8000075c:	a3c2002c 	sb	$2,44($30)
80000760:	93c2002c 	lbu	$2,44($30)
80000764:	00003825 	or	$7,$0,$0
80000768:	2406000a 	addiu	$6,$0,10
8000076c:	24050001 	addiu	$5,$0,1
80000770:	00402025 	or	$4,$2,$0
80000774:	0c000135 	jal	800004d4 <_Z9printbaseliii>
80000778:	00000000 	sll	$0,$0,0x0
8000077c:	3c028000 	lui	$2,0x8000
80000780:	24443f0c 	addiu	$4,$2,16140
80000784:	0c000111 	jal	80000444 <_Z9putstringPKc>
80000788:	00000000 	sll	$0,$0,0x0
8000078c:	3c02bb00 	lui	$2,0xbb00
80000790:	344201fc 	ori	$2,$2,0x1fc
80000794:	afc20018 	sw	$2,24($30)
80000798:	3c02bb00 	lui	$2,0xbb00
8000079c:	344201fd 	ori	$2,$2,0x1fd
800007a0:	afc20030 	sw	$2,48($30)
800007a4:	3c02bb00 	lui	$2,0xbb00
800007a8:	344201fe 	ori	$2,$2,0x1fe
800007ac:	afc20034 	sw	$2,52($30)
800007b0:	8fc20018 	lw	$2,24($30)
800007b4:	90420000 	lbu	$2,0($2)
800007b8:	304200ff 	andi	$2,$2,0xff
800007bc:	00401825 	or	$3,$2,$0
800007c0:	8fc20030 	lw	$2,48($30)
800007c4:	90420000 	lbu	$2,0($2)
800007c8:	304200ff 	andi	$2,$2,0xff
800007cc:	00021200 	sll	$2,$2,0x8
800007d0:	00621821 	addu	$3,$3,$2
800007d4:	8fc20034 	lw	$2,52($30)
800007d8:	90420000 	lbu	$2,0($2)
800007dc:	304200ff 	andi	$2,$2,0xff
800007e0:	00021400 	sll	$2,$2,0x10
800007e4:	00621021 	addu	$2,$3,$2
800007e8:	afc20038 	sw	$2,56($30)
800007ec:	3c02bb00 	lui	$2,0xbb00
800007f0:	afc20018 	sw	$2,24($30)
800007f4:	afc0001c 	sw	$0,28($30)
800007f8:	8fc3001c 	lw	$3,28($30)
800007fc:	8fc20038 	lw	$2,56($30)
80000800:	0062102b 	sltu	$2,$3,$2
80000804:	10400010 	beqz	$2,80000848 <_Z19HAL_ReceiveIPPacketiPhjS_S_xPi+0x154>
80000808:	00000000 	sll	$0,$0,0x0
8000080c:	8fc3004c 	lw	$3,76($30)
80000810:	8fc2001c 	lw	$2,28($30)
80000814:	00621021 	addu	$2,$3,$2
80000818:	8fc30018 	lw	$3,24($30)
8000081c:	90630000 	lbu	$3,0($3)
80000820:	306300ff 	andi	$3,$3,0xff
80000824:	a0430000 	sb	$3,0($2)
80000828:	8fc2001c 	lw	$2,28($30)
8000082c:	24420001 	addiu	$2,$2,1
80000830:	afc2001c 	sw	$2,28($30)
80000834:	8fc20018 	lw	$2,24($30)
80000838:	24420001 	addiu	$2,$2,1
8000083c:	afc20018 	sw	$2,24($30)
80000840:	1000ffed 	beqz	$0,800007f8 <_Z19HAL_ReceiveIPPacketiPhjS_S_xPi+0x104>
80000844:	00000000 	sll	$0,$0,0x0
80000848:	24060006 	addiu	$6,$0,6
8000084c:	8fc5004c 	lw	$5,76($30)
80000850:	8fc40058 	lw	$4,88($30)
80000854:	0c00019c 	jal	80000670 <_Z6memcpyPhS_j>
80000858:	00000000 	sll	$0,$0,0x0
8000085c:	8fc2004c 	lw	$2,76($30)
80000860:	24420006 	addiu	$2,$2,6
80000864:	24060006 	addiu	$6,$0,6
80000868:	00402825 	or	$5,$2,$0
8000086c:	8fc40054 	lw	$4,84($30)
80000870:	0c00019c 	jal	80000670 <_Z6memcpyPhS_j>
80000874:	00000000 	sll	$0,$0,0x0
80000878:	8fc2004c 	lw	$2,76($30)
8000087c:	2442000f 	addiu	$2,$2,15
80000880:	90420000 	lbu	$2,0($2)
80000884:	00401825 	or	$3,$2,$0
80000888:	8fc20068 	lw	$2,104($30)
8000088c:	ac430000 	sw	$3,0($2)
80000890:	3c028000 	lui	$2,0x8000
80000894:	24443f10 	addiu	$4,$2,16144
80000898:	0c000111 	jal	80000444 <_Z9putstringPKc>
8000089c:	00000000 	sll	$0,$0,0x0
800008a0:	8fc20038 	lw	$2,56($30)
800008a4:	00003825 	or	$7,$0,$0
800008a8:	2406000a 	addiu	$6,$0,10
800008ac:	24050001 	addiu	$5,$0,1
800008b0:	00402025 	or	$4,$2,$0
800008b4:	0c000135 	jal	800004d4 <_Z9printbaseliii>
800008b8:	00000000 	sll	$0,$0,0x0
800008bc:	2404000a 	addiu	$4,$0,10
800008c0:	0c000100 	jal	80000400 <putchar>
800008c4:	00000000 	sll	$0,$0,0x0
800008c8:	8fc2004c 	lw	$2,76($30)
800008cc:	24420012 	addiu	$2,$2,18
800008d0:	afc20018 	sw	$2,24($30)
800008d4:	afc00020 	sw	$0,32($30)
800008d8:	8fc20038 	lw	$2,56($30)
800008dc:	2442ffee 	addiu	$2,$2,-18
800008e0:	8fc30020 	lw	$3,32($30)
800008e4:	0062102b 	sltu	$2,$3,$2
800008e8:	10400010 	beqz	$2,8000092c <_Z19HAL_ReceiveIPPacketiPhjS_S_xPi+0x238>
800008ec:	00000000 	sll	$0,$0,0x0
800008f0:	8fc3004c 	lw	$3,76($30)
800008f4:	8fc20020 	lw	$2,32($30)
800008f8:	00621021 	addu	$2,$3,$2
800008fc:	8fc30018 	lw	$3,24($30)
80000900:	90630000 	lbu	$3,0($3)
80000904:	306300ff 	andi	$3,$3,0xff
80000908:	a0430000 	sb	$3,0($2)
8000090c:	8fc20020 	lw	$2,32($30)
80000910:	24420001 	addiu	$2,$2,1
80000914:	afc20020 	sw	$2,32($30)
80000918:	8fc20018 	lw	$2,24($30)
8000091c:	24420001 	addiu	$2,$2,1
80000920:	afc20018 	sw	$2,24($30)
80000924:	1000ffec 	beqz	$0,800008d8 <_Z19HAL_ReceiveIPPacketiPhjS_S_xPi+0x1e4>
80000928:	00000000 	sll	$0,$0,0x0
8000092c:	8fc20038 	lw	$2,56($30)
80000930:	2442ffee 	addiu	$2,$2,-18
80000934:	afc20024 	sw	$2,36($30)
80000938:	8fc30024 	lw	$3,36($30)
8000093c:	8fc20038 	lw	$2,56($30)
80000940:	0062102b 	sltu	$2,$3,$2
80000944:	10400010 	beqz	$2,80000988 <_Z19HAL_ReceiveIPPacketiPhjS_S_xPi+0x294>
80000948:	00000000 	sll	$0,$0,0x0
8000094c:	8fc3004c 	lw	$3,76($30)
80000950:	8fc20024 	lw	$2,36($30)
80000954:	00621021 	addu	$2,$3,$2
80000958:	8fc30018 	lw	$3,24($30)
8000095c:	90630000 	lbu	$3,0($3)
80000960:	306300ff 	andi	$3,$3,0xff
80000964:	a0430000 	sb	$3,0($2)
80000968:	8fc20024 	lw	$2,36($30)
8000096c:	24420001 	addiu	$2,$2,1
80000970:	afc20024 	sw	$2,36($30)
80000974:	8fc20018 	lw	$2,24($30)
80000978:	24420001 	addiu	$2,$2,1
8000097c:	afc20018 	sw	$2,24($30)
80000980:	1000ffed 	beqz	$0,80000938 <_Z19HAL_ReceiveIPPacketiPhjS_S_xPi+0x244>
80000984:	00000000 	sll	$0,$0,0x0
80000988:	8fc20028 	lw	$2,40($30)
8000098c:	a0400000 	sb	$0,0($2)
80000990:	8fc20038 	lw	$2,56($30)
80000994:	2442ffee 	addiu	$2,$2,-18
80000998:	03c0e825 	or	$29,$30,$0
8000099c:	8fbf0044 	lw	$31,68($29)
800009a0:	8fbe0040 	lw	$30,64($29)
800009a4:	27bd0048 	addiu	$29,$29,72
800009a8:	03e00008 	jr	$31
800009ac:	00000000 	sll	$0,$0,0x0

800009b0 <_Z16HAL_SendIPPacketiPhjS_>:
800009b0:	27bdffc0 	addiu	$29,$29,-64
800009b4:	afbf003c 	sw	$31,60($29)
800009b8:	afbe0038 	sw	$30,56($29)
800009bc:	03a0f025 	or	$30,$29,$0
800009c0:	afc40040 	sw	$4,64($30)
800009c4:	afc50044 	sw	$5,68($30)
800009c8:	afc60048 	sw	$6,72($30)
800009cc:	afc7004c 	sw	$7,76($30)
800009d0:	24060006 	addiu	$6,$0,6
800009d4:	8fc5004c 	lw	$5,76($30)
800009d8:	3c028001 	lui	$2,0x8001
800009dc:	2444c094 	addiu	$4,$2,-16236
800009e0:	0c00019c 	jal	80000670 <_Z6memcpyPhS_j>
800009e4:	00000000 	sll	$0,$0,0x0
800009e8:	24060006 	addiu	$6,$0,6
800009ec:	3c028000 	lui	$2,0x8000
800009f0:	24454290 	addiu	$5,$2,17040
800009f4:	3c028001 	lui	$2,0x8001
800009f8:	2444c09a 	addiu	$4,$2,-16230
800009fc:	0c00019c 	jal	80000670 <_Z6memcpyPhS_j>
80000a00:	00000000 	sll	$0,$0,0x0
80000a04:	3c028001 	lui	$2,0x8001
80000a08:	2442c094 	addiu	$2,$2,-16236
80000a0c:	2403ff81 	addiu	$3,$0,-127
80000a10:	a043000c 	sb	$3,12($2)
80000a14:	3c028001 	lui	$2,0x8001
80000a18:	2442c094 	addiu	$2,$2,-16236
80000a1c:	a040000d 	sb	$0,13($2)
80000a20:	3c028001 	lui	$2,0x8001
80000a24:	2442c094 	addiu	$2,$2,-16236
80000a28:	a040000e 	sb	$0,14($2)
80000a2c:	8fc20040 	lw	$2,64($30)
80000a30:	304300ff 	andi	$3,$2,0xff
80000a34:	3c028001 	lui	$2,0x8001
80000a38:	2442c094 	addiu	$2,$2,-16236
80000a3c:	a043000f 	sb	$3,15($2)
80000a40:	3c028001 	lui	$2,0x8001
80000a44:	2442c094 	addiu	$2,$2,-16236
80000a48:	24030008 	addiu	$3,$0,8
80000a4c:	a0430010 	sb	$3,16($2)
80000a50:	3c028001 	lui	$2,0x8001
80000a54:	2442c094 	addiu	$2,$2,-16236
80000a58:	a0400011 	sb	$0,17($2)
80000a5c:	3c02bc00 	lui	$2,0xbc00
80000a60:	344201ff 	ori	$2,$2,0x1ff
80000a64:	afc20028 	sw	$2,40($30)
80000a68:	8fc20028 	lw	$2,40($30)
80000a6c:	90420000 	lbu	$2,0($2)
80000a70:	a3c20018 	sb	$2,24($30)
80000a74:	93c30018 	lbu	$3,24($30)
80000a78:	240200ff 	addiu	$2,$0,255
80000a7c:	14620006 	bne	$3,$2,80000a98 <_Z16HAL_SendIPPacketiPhjS_+0xe8>
80000a80:	00000000 	sll	$0,$0,0x0
80000a84:	8fc20028 	lw	$2,40($30)
80000a88:	90420000 	lbu	$2,0($2)
80000a8c:	a3c20018 	sb	$2,24($30)
80000a90:	1000fff8 	beqz	$0,80000a74 <_Z16HAL_SendIPPacketiPhjS_+0xc4>
80000a94:	00000000 	sll	$0,$0,0x0
80000a98:	8fc20048 	lw	$2,72($30)
80000a9c:	24420012 	addiu	$2,$2,18
80000aa0:	afc2002c 	sw	$2,44($30)
80000aa4:	3c02bc00 	lui	$2,0xbc00
80000aa8:	344201fc 	ori	$2,$2,0x1fc
80000aac:	afc2001c 	sw	$2,28($30)
80000ab0:	3c02bc00 	lui	$2,0xbc00
80000ab4:	344201fd 	ori	$2,$2,0x1fd
80000ab8:	afc20030 	sw	$2,48($30)
80000abc:	3c02bc00 	lui	$2,0xbc00
80000ac0:	344201fe 	ori	$2,$2,0x1fe
80000ac4:	afc20034 	sw	$2,52($30)
80000ac8:	8fc2002c 	lw	$2,44($30)
80000acc:	304300ff 	andi	$3,$2,0xff
80000ad0:	8fc2001c 	lw	$2,28($30)
80000ad4:	a0430000 	sb	$3,0($2)
80000ad8:	8fc2002c 	lw	$2,44($30)
80000adc:	00021202 	srl	$2,$2,0x8
80000ae0:	304300ff 	andi	$3,$2,0xff
80000ae4:	8fc20030 	lw	$2,48($30)
80000ae8:	a0430000 	sb	$3,0($2)
80000aec:	8fc2002c 	lw	$2,44($30)
80000af0:	00021402 	srl	$2,$2,0x10
80000af4:	304300ff 	andi	$3,$2,0xff
80000af8:	8fc20034 	lw	$2,52($30)
80000afc:	a0430000 	sb	$3,0($2)
80000b00:	3c02bc00 	lui	$2,0xbc00
80000b04:	afc2001c 	sw	$2,28($30)
80000b08:	afc00020 	sw	$0,32($30)
80000b0c:	8fc20020 	lw	$2,32($30)
80000b10:	28420012 	slti	$2,$2,18
80000b14:	10400010 	beqz	$2,80000b58 <_Z16HAL_SendIPPacketiPhjS_+0x1a8>
80000b18:	00000000 	sll	$0,$0,0x0
80000b1c:	3c028001 	lui	$2,0x8001
80000b20:	2443c094 	addiu	$3,$2,-16236
80000b24:	8fc20020 	lw	$2,32($30)
80000b28:	00621021 	addu	$2,$3,$2
80000b2c:	90430000 	lbu	$3,0($2)
80000b30:	8fc2001c 	lw	$2,28($30)
80000b34:	a0430000 	sb	$3,0($2)
80000b38:	8fc20020 	lw	$2,32($30)
80000b3c:	24420001 	addiu	$2,$2,1
80000b40:	afc20020 	sw	$2,32($30)
80000b44:	8fc2001c 	lw	$2,28($30)
80000b48:	24420001 	addiu	$2,$2,1
80000b4c:	afc2001c 	sw	$2,28($30)
80000b50:	1000ffee 	beqz	$0,80000b0c <_Z16HAL_SendIPPacketiPhjS_+0x15c>
80000b54:	00000000 	sll	$0,$0,0x0
80000b58:	afc00024 	sw	$0,36($30)
80000b5c:	8fc20048 	lw	$2,72($30)
80000b60:	8fc30024 	lw	$3,36($30)
80000b64:	0062102a 	slt	$2,$3,$2
80000b68:	1040000f 	beqz	$2,80000ba8 <_Z16HAL_SendIPPacketiPhjS_+0x1f8>
80000b6c:	00000000 	sll	$0,$0,0x0
80000b70:	8fc20024 	lw	$2,36($30)
80000b74:	8fc30044 	lw	$3,68($30)
80000b78:	00621021 	addu	$2,$3,$2
80000b7c:	90430000 	lbu	$3,0($2)
80000b80:	8fc2001c 	lw	$2,28($30)
80000b84:	a0430000 	sb	$3,0($2)
80000b88:	8fc20024 	lw	$2,36($30)
80000b8c:	24420001 	addiu	$2,$2,1
80000b90:	afc20024 	sw	$2,36($30)
80000b94:	8fc2001c 	lw	$2,28($30)
80000b98:	24420001 	addiu	$2,$2,1
80000b9c:	afc2001c 	sw	$2,28($30)
80000ba0:	1000ffee 	beqz	$0,80000b5c <_Z16HAL_SendIPPacketiPhjS_+0x1ac>
80000ba4:	00000000 	sll	$0,$0,0x0
80000ba8:	3c02bc00 	lui	$2,0xbc00
80000bac:	afc2001c 	sw	$2,28($30)
80000bb0:	3c028000 	lui	$2,0x8000
80000bb4:	24443f24 	addiu	$4,$2,16164
80000bb8:	0c000111 	jal	80000444 <_Z9putstringPKc>
80000bbc:	00000000 	sll	$0,$0,0x0
80000bc0:	8fc20028 	lw	$2,40($30)
80000bc4:	2403ffff 	addiu	$3,$0,-1
80000bc8:	a0430000 	sb	$3,0($2)
80000bcc:	00001025 	or	$2,$0,$0
80000bd0:	03c0e825 	or	$29,$30,$0
80000bd4:	8fbf003c 	lw	$31,60($29)
80000bd8:	8fbe0038 	lw	$30,56($29)
80000bdc:	27bd0040 	addiu	$29,$29,64
80000be0:	03e00008 	jr	$31
80000be4:	00000000 	sll	$0,$0,0x0

80000be8 <_Z26HAL_DEBUG_ARP_SendIPPacketv>:
80000be8:	27bdffd0 	addiu	$29,$29,-48
80000bec:	afbe002c 	sw	$30,44($29)
80000bf0:	03a0f025 	or	$30,$29,$0
80000bf4:	3c02bc00 	lui	$2,0xbc00
80000bf8:	344201ff 	ori	$2,$2,0x1ff
80000bfc:	afc20014 	sw	$2,20($30)
80000c00:	8fc20014 	lw	$2,20($30)
80000c04:	90420000 	lbu	$2,0($2)
80000c08:	a3c20008 	sb	$2,8($30)
80000c0c:	93c30008 	lbu	$3,8($30)
80000c10:	240200ff 	addiu	$2,$0,255
80000c14:	14620006 	bne	$3,$2,80000c30 <_Z26HAL_DEBUG_ARP_SendIPPacketv+0x48>
80000c18:	00000000 	sll	$0,$0,0x0
80000c1c:	8fc20014 	lw	$2,20($30)
80000c20:	90420000 	lbu	$2,0($2)
80000c24:	a3c20008 	sb	$2,8($30)
80000c28:	1000fff8 	beqz	$0,80000c0c <_Z26HAL_DEBUG_ARP_SendIPPacketv+0x24>
80000c2c:	00000000 	sll	$0,$0,0x0
80000c30:	24020040 	addiu	$2,$0,64
80000c34:	afc20018 	sw	$2,24($30)
80000c38:	3c02bc00 	lui	$2,0xbc00
80000c3c:	344201fc 	ori	$2,$2,0x1fc
80000c40:	afc2000c 	sw	$2,12($30)
80000c44:	3c02bc00 	lui	$2,0xbc00
80000c48:	344201fd 	ori	$2,$2,0x1fd
80000c4c:	afc2001c 	sw	$2,28($30)
80000c50:	3c02bc00 	lui	$2,0xbc00
80000c54:	344201fe 	ori	$2,$2,0x1fe
80000c58:	afc20020 	sw	$2,32($30)
80000c5c:	8fc20018 	lw	$2,24($30)
80000c60:	304300ff 	andi	$3,$2,0xff
80000c64:	8fc2000c 	lw	$2,12($30)
80000c68:	a0430000 	sb	$3,0($2)
80000c6c:	8fc20018 	lw	$2,24($30)
80000c70:	00021202 	srl	$2,$2,0x8
80000c74:	304300ff 	andi	$3,$2,0xff
80000c78:	8fc2001c 	lw	$2,28($30)
80000c7c:	a0430000 	sb	$3,0($2)
80000c80:	8fc20018 	lw	$2,24($30)
80000c84:	00021402 	srl	$2,$2,0x10
80000c88:	304300ff 	andi	$3,$2,0xff
80000c8c:	8fc20020 	lw	$2,32($30)
80000c90:	a0430000 	sb	$3,0($2)
80000c94:	3c02bc00 	lui	$2,0xbc00
80000c98:	afc2000c 	sw	$2,12($30)
80000c9c:	afc00010 	sw	$0,16($30)
80000ca0:	8fc20018 	lw	$2,24($30)
80000ca4:	8fc30010 	lw	$3,16($30)
80000ca8:	0062102a 	slt	$2,$3,$2
80000cac:	10400010 	beqz	$2,80000cf0 <_Z26HAL_DEBUG_ARP_SendIPPacketv+0x108>
80000cb0:	00000000 	sll	$0,$0,0x0
80000cb4:	3c028000 	lui	$2,0x8000
80000cb8:	2443429c 	addiu	$3,$2,17052
80000cbc:	8fc20010 	lw	$2,16($30)
80000cc0:	00621021 	addu	$2,$3,$2
80000cc4:	90430000 	lbu	$3,0($2)
80000cc8:	8fc2000c 	lw	$2,12($30)
80000ccc:	a0430000 	sb	$3,0($2)
80000cd0:	8fc20010 	lw	$2,16($30)
80000cd4:	24420001 	addiu	$2,$2,1
80000cd8:	afc20010 	sw	$2,16($30)
80000cdc:	8fc2000c 	lw	$2,12($30)
80000ce0:	24420001 	addiu	$2,$2,1
80000ce4:	afc2000c 	sw	$2,12($30)
80000ce8:	1000ffed 	beqz	$0,80000ca0 <_Z26HAL_DEBUG_ARP_SendIPPacketv+0xb8>
80000cec:	00000000 	sll	$0,$0,0x0
80000cf0:	8fc20014 	lw	$2,20($30)
80000cf4:	2403ffff 	addiu	$3,$0,-1
80000cf8:	a0430000 	sb	$3,0($2)
80000cfc:	00001025 	or	$2,$0,$0
80000d00:	03c0e825 	or	$29,$30,$0
80000d04:	8fbe002c 	lw	$30,44($29)
80000d08:	27bd0030 	addiu	$29,$29,48
80000d0c:	03e00008 	jr	$31
80000d10:	00000000 	sll	$0,$0,0x0

80000d14 <_Z18validateIPChecksumPhj>:
80000d14:	27bdffd0 	addiu	$29,$29,-48
80000d18:	afbe002c 	sw	$30,44($29)
80000d1c:	03a0f025 	or	$30,$29,$0
80000d20:	afc40030 	sw	$4,48($30)
80000d24:	afc50034 	sw	$5,52($30)
80000d28:	8fc20030 	lw	$2,48($30)
80000d2c:	2442000a 	addiu	$2,$2,10
80000d30:	90420000 	lbu	$2,0($2)
80000d34:	3042ffff 	andi	$2,$2,0xffff
80000d38:	00021200 	sll	$2,$2,0x8
80000d3c:	3043ffff 	andi	$3,$2,0xffff
80000d40:	8fc20030 	lw	$2,48($30)
80000d44:	2442000b 	addiu	$2,$2,11
80000d48:	90420000 	lbu	$2,0($2)
80000d4c:	3042ffff 	andi	$2,$2,0xffff
80000d50:	00621025 	or	$2,$3,$2
80000d54:	a7c20010 	sh	$2,16($30)
80000d58:	8fc20030 	lw	$2,48($30)
80000d5c:	90420000 	lbu	$2,0($2)
80000d60:	3042000f 	andi	$2,$2,0xf
80000d64:	00021080 	sll	$2,$2,0x2
80000d68:	afc20014 	sw	$2,20($30)
80000d6c:	8fc20030 	lw	$2,48($30)
80000d70:	2442000a 	addiu	$2,$2,10
80000d74:	a0400000 	sb	$0,0($2)
80000d78:	8fc20030 	lw	$2,48($30)
80000d7c:	2442000b 	addiu	$2,$2,11
80000d80:	a0400000 	sb	$0,0($2)
80000d84:	afc00008 	sw	$0,8($30)
80000d88:	3402ffff 	ori	$2,$0,0xffff
80000d8c:	afc20018 	sw	$2,24($30)
80000d90:	afc0000c 	sw	$0,12($30)
80000d94:	8fc3000c 	lw	$3,12($30)
80000d98:	8fc20014 	lw	$2,20($30)
80000d9c:	0062102a 	slt	$2,$3,$2
80000da0:	10400016 	beqz	$2,80000dfc <_Z18validateIPChecksumPhj+0xe8>
80000da4:	00000000 	sll	$0,$0,0x0
80000da8:	8fc2000c 	lw	$2,12($30)
80000dac:	8fc30030 	lw	$3,48($30)
80000db0:	00621021 	addu	$2,$3,$2
80000db4:	90420000 	lbu	$2,0($2)
80000db8:	00021200 	sll	$2,$2,0x8
80000dbc:	8fc3000c 	lw	$3,12($30)
80000dc0:	24630001 	addiu	$3,$3,1
80000dc4:	8fc40030 	lw	$4,48($30)
80000dc8:	00831821 	addu	$3,$4,$3
80000dcc:	90630000 	lbu	$3,0($3)
80000dd0:	00431025 	or	$2,$2,$3
80000dd4:	afc2001c 	sw	$2,28($30)
80000dd8:	8fc30008 	lw	$3,8($30)
80000ddc:	8fc2001c 	lw	$2,28($30)
80000de0:	00621021 	addu	$2,$3,$2
80000de4:	afc20008 	sw	$2,8($30)
80000de8:	8fc2000c 	lw	$2,12($30)
80000dec:	24420002 	addiu	$2,$2,2
80000df0:	afc2000c 	sw	$2,12($30)
80000df4:	1000ffe7 	beqz	$0,80000d94 <_Z18validateIPChecksumPhj+0x80>
80000df8:	00000000 	sll	$0,$0,0x0
80000dfc:	8fc20008 	lw	$2,8($30)
80000e00:	00021402 	srl	$2,$2,0x10
80000e04:	1040000a 	beqz	$2,80000e30 <_Z18validateIPChecksumPhj+0x11c>
80000e08:	00000000 	sll	$0,$0,0x0
80000e0c:	8fc30008 	lw	$3,8($30)
80000e10:	8fc20018 	lw	$2,24($30)
80000e14:	00621824 	and	$3,$3,$2
80000e18:	8fc20008 	lw	$2,8($30)
80000e1c:	00021402 	srl	$2,$2,0x10
80000e20:	00621021 	addu	$2,$3,$2
80000e24:	afc20008 	sw	$2,8($30)
80000e28:	1000fff4 	beqz	$0,80000dfc <_Z18validateIPChecksumPhj+0xe8>
80000e2c:	00000000 	sll	$0,$0,0x0
80000e30:	8fc20008 	lw	$2,8($30)
80000e34:	3043ffff 	andi	$3,$2,0xffff
80000e38:	8fc20018 	lw	$2,24($30)
80000e3c:	3042ffff 	andi	$2,$2,0xffff
80000e40:	00621024 	and	$2,$3,$2
80000e44:	3042ffff 	andi	$2,$2,0xffff
80000e48:	00021027 	nor	$2,$0,$2
80000e4c:	a7c20020 	sh	$2,32($30)
80000e50:	97c20020 	lhu	$2,32($30)
80000e54:	00021a03 	sra	$3,$2,0x8
80000e58:	8fc20030 	lw	$2,48($30)
80000e5c:	2442000a 	addiu	$2,$2,10
80000e60:	306300ff 	andi	$3,$3,0xff
80000e64:	a0430000 	sb	$3,0($2)
80000e68:	8fc20030 	lw	$2,48($30)
80000e6c:	2442000b 	addiu	$2,$2,11
80000e70:	97c30020 	lhu	$3,32($30)
80000e74:	306300ff 	andi	$3,$3,0xff
80000e78:	a0430000 	sb	$3,0($2)
80000e7c:	97c30010 	lhu	$3,16($30)
80000e80:	97c20020 	lhu	$2,32($30)
80000e84:	14620004 	bne	$3,$2,80000e98 <_Z18validateIPChecksumPhj+0x184>
80000e88:	00000000 	sll	$0,$0,0x0
80000e8c:	24020001 	addiu	$2,$0,1
80000e90:	10000002 	beqz	$0,80000e9c <_Z18validateIPChecksumPhj+0x188>
80000e94:	00000000 	sll	$0,$0,0x0
80000e98:	00001025 	or	$2,$0,$0
80000e9c:	03c0e825 	or	$29,$30,$0
80000ea0:	8fbe002c 	lw	$30,44($29)
80000ea4:	27bd0030 	addiu	$29,$29,48
80000ea8:	03e00008 	jr	$31
80000eac:	00000000 	sll	$0,$0,0x0

80000eb0 <_Z19calculateIPChecksumPhj>:
80000eb0:	27bdffd0 	addiu	$29,$29,-48
80000eb4:	afbe002c 	sw	$30,44($29)
80000eb8:	03a0f025 	or	$30,$29,$0
80000ebc:	afc40030 	sw	$4,48($30)
80000ec0:	afc50034 	sw	$5,52($30)
80000ec4:	8fc20030 	lw	$2,48($30)
80000ec8:	24420006 	addiu	$2,$2,6
80000ecc:	90420000 	lbu	$2,0($2)
80000ed0:	3042ffff 	andi	$2,$2,0xffff
80000ed4:	00021200 	sll	$2,$2,0x8
80000ed8:	3043ffff 	andi	$3,$2,0xffff
80000edc:	8fc20030 	lw	$2,48($30)
80000ee0:	24420007 	addiu	$2,$2,7
80000ee4:	90420000 	lbu	$2,0($2)
80000ee8:	3042ffff 	andi	$2,$2,0xffff
80000eec:	00621025 	or	$2,$3,$2
80000ef0:	a7c20010 	sh	$2,16($30)
80000ef4:	8fc20034 	lw	$2,52($30)
80000ef8:	afc20014 	sw	$2,20($30)
80000efc:	8fc20030 	lw	$2,48($30)
80000f00:	24420006 	addiu	$2,$2,6
80000f04:	a0400000 	sb	$0,0($2)
80000f08:	8fc20030 	lw	$2,48($30)
80000f0c:	24420007 	addiu	$2,$2,7
80000f10:	a0400000 	sb	$0,0($2)
80000f14:	afc00008 	sw	$0,8($30)
80000f18:	3402ffff 	ori	$2,$0,0xffff
80000f1c:	afc20018 	sw	$2,24($30)
80000f20:	afc0000c 	sw	$0,12($30)
80000f24:	8fc3000c 	lw	$3,12($30)
80000f28:	8fc20014 	lw	$2,20($30)
80000f2c:	0062102a 	slt	$2,$3,$2
80000f30:	10400016 	beqz	$2,80000f8c <_Z19calculateIPChecksumPhj+0xdc>
80000f34:	00000000 	sll	$0,$0,0x0
80000f38:	8fc2000c 	lw	$2,12($30)
80000f3c:	8fc30030 	lw	$3,48($30)
80000f40:	00621021 	addu	$2,$3,$2
80000f44:	90420000 	lbu	$2,0($2)
80000f48:	00021200 	sll	$2,$2,0x8
80000f4c:	8fc3000c 	lw	$3,12($30)
80000f50:	24630001 	addiu	$3,$3,1
80000f54:	8fc40030 	lw	$4,48($30)
80000f58:	00831821 	addu	$3,$4,$3
80000f5c:	90630000 	lbu	$3,0($3)
80000f60:	00431025 	or	$2,$2,$3
80000f64:	afc2001c 	sw	$2,28($30)
80000f68:	8fc30008 	lw	$3,8($30)
80000f6c:	8fc2001c 	lw	$2,28($30)
80000f70:	00621021 	addu	$2,$3,$2
80000f74:	afc20008 	sw	$2,8($30)
80000f78:	8fc2000c 	lw	$2,12($30)
80000f7c:	24420002 	addiu	$2,$2,2
80000f80:	afc2000c 	sw	$2,12($30)
80000f84:	1000ffe7 	beqz	$0,80000f24 <_Z19calculateIPChecksumPhj+0x74>
80000f88:	00000000 	sll	$0,$0,0x0
80000f8c:	8fc20008 	lw	$2,8($30)
80000f90:	00021402 	srl	$2,$2,0x10
80000f94:	1040000a 	beqz	$2,80000fc0 <_Z19calculateIPChecksumPhj+0x110>
80000f98:	00000000 	sll	$0,$0,0x0
80000f9c:	8fc30008 	lw	$3,8($30)
80000fa0:	8fc20018 	lw	$2,24($30)
80000fa4:	00621824 	and	$3,$3,$2
80000fa8:	8fc20008 	lw	$2,8($30)
80000fac:	00021402 	srl	$2,$2,0x10
80000fb0:	00621021 	addu	$2,$3,$2
80000fb4:	afc20008 	sw	$2,8($30)
80000fb8:	1000fff4 	beqz	$0,80000f8c <_Z19calculateIPChecksumPhj+0xdc>
80000fbc:	00000000 	sll	$0,$0,0x0
80000fc0:	8fc20008 	lw	$2,8($30)
80000fc4:	3043ffff 	andi	$3,$2,0xffff
80000fc8:	8fc20018 	lw	$2,24($30)
80000fcc:	3042ffff 	andi	$2,$2,0xffff
80000fd0:	00621024 	and	$2,$3,$2
80000fd4:	3042ffff 	andi	$2,$2,0xffff
80000fd8:	00021027 	nor	$2,$0,$2
80000fdc:	a7c20020 	sh	$2,32($30)
80000fe0:	97c20020 	lhu	$2,32($30)
80000fe4:	00021a03 	sra	$3,$2,0x8
80000fe8:	8fc20030 	lw	$2,48($30)
80000fec:	24420006 	addiu	$2,$2,6
80000ff0:	306300ff 	andi	$3,$3,0xff
80000ff4:	a0430000 	sb	$3,0($2)
80000ff8:	8fc20030 	lw	$2,48($30)
80000ffc:	24420007 	addiu	$2,$2,7
80001000:	97c30020 	lhu	$3,32($30)
80001004:	306300ff 	andi	$3,$3,0xff
80001008:	a0430000 	sb	$3,0($2)
8000100c:	97c30010 	lhu	$3,16($30)
80001010:	97c20020 	lhu	$2,32($30)
80001014:	14620004 	bne	$3,$2,80001028 <_Z19calculateIPChecksumPhj+0x178>
80001018:	00000000 	sll	$0,$0,0x0
8000101c:	24020001 	addiu	$2,$0,1
80001020:	10000002 	beqz	$0,8000102c <_Z19calculateIPChecksumPhj+0x17c>
80001024:	00000000 	sll	$0,$0,0x0
80001028:	00001025 	or	$2,$0,$0
8000102c:	03c0e825 	or	$29,$30,$0
80001030:	8fbe002c 	lw	$30,44($29)
80001034:	27bd0030 	addiu	$29,$29,48
80001038:	03e00008 	jr	$31
8000103c:	00000000 	sll	$0,$0,0x0

80001040 <_Z6updateb17RoutingTableEntry>:
80001040:	27bdffb0 	addiu	$29,$29,-80
80001044:	afbf004c 	sw	$31,76($29)
80001048:	afbe0048 	sw	$30,72($29)
8000104c:	03a0f025 	or	$30,$29,$0
80001050:	00801025 	or	$2,$4,$0
80001054:	afc50054 	sw	$5,84($30)
80001058:	afc60058 	sw	$6,88($30)
8000105c:	afc7005c 	sw	$7,92($30)
80001060:	a3c20050 	sb	$2,80($30)
80001064:	24020001 	addiu	$2,$0,1
80001068:	afc20018 	sw	$2,24($30)
8000106c:	3c028000 	lui	$2,0x8000
80001070:	afc20028 	sw	$2,40($30)
80001074:	8fc20054 	lw	$2,84($30)
80001078:	00021e00 	sll	$3,$2,0x18
8000107c:	8fc20054 	lw	$2,84($30)
80001080:	00021202 	srl	$2,$2,0x8
80001084:	00022400 	sll	$4,$2,0x10
80001088:	3c0200ff 	lui	$2,0xff
8000108c:	00821024 	and	$2,$4,$2
80001090:	00621821 	addu	$3,$3,$2
80001094:	8fc20054 	lw	$2,84($30)
80001098:	00021402 	srl	$2,$2,0x10
8000109c:	00021200 	sll	$2,$2,0x8
800010a0:	3042ffff 	andi	$2,$2,0xffff
800010a4:	00621821 	addu	$3,$3,$2
800010a8:	8fc20054 	lw	$2,84($30)
800010ac:	00021602 	srl	$2,$2,0x18
800010b0:	00621021 	addu	$2,$3,$2
800010b4:	afc2002c 	sw	$2,44($30)
800010b8:	8fc2005c 	lw	$2,92($30)
800010bc:	00021e00 	sll	$3,$2,0x18
800010c0:	8fc2005c 	lw	$2,92($30)
800010c4:	00021202 	srl	$2,$2,0x8
800010c8:	00022400 	sll	$4,$2,0x10
800010cc:	3c0200ff 	lui	$2,0xff
800010d0:	00821024 	and	$2,$4,$2
800010d4:	00621821 	addu	$3,$3,$2
800010d8:	8fc2005c 	lw	$2,92($30)
800010dc:	00021402 	srl	$2,$2,0x10
800010e0:	00021200 	sll	$2,$2,0x8
800010e4:	3042ffff 	andi	$2,$2,0xffff
800010e8:	00621821 	addu	$3,$3,$2
800010ec:	8fc2005c 	lw	$2,92($30)
800010f0:	00021602 	srl	$2,$2,0x18
800010f4:	00621021 	addu	$2,$3,$2
800010f8:	afc20030 	sw	$2,48($30)
800010fc:	8fc20064 	lw	$2,100($30)
80001100:	00021e00 	sll	$3,$2,0x18
80001104:	8fc20064 	lw	$2,100($30)
80001108:	00021202 	srl	$2,$2,0x8
8000110c:	00022400 	sll	$4,$2,0x10
80001110:	3c0200ff 	lui	$2,0xff
80001114:	00821024 	and	$2,$4,$2
80001118:	00621821 	addu	$3,$3,$2
8000111c:	8fc20064 	lw	$2,100($30)
80001120:	00021402 	srl	$2,$2,0x10
80001124:	00021200 	sll	$2,$2,0x8
80001128:	3042ffff 	andi	$2,$2,0xffff
8000112c:	00621821 	addu	$3,$3,$2
80001130:	8fc20064 	lw	$2,100($30)
80001134:	00021602 	srl	$2,$2,0x18
80001138:	00621021 	addu	$2,$3,$2
8000113c:	afc20034 	sw	$2,52($30)
80001140:	afc0001c 	sw	$0,28($30)
80001144:	8fc30034 	lw	$3,52($30)
80001148:	2402ffff 	addiu	$2,$0,-1
8000114c:	14620005 	bne	$3,$2,80001164 <_Z6updateb17RoutingTableEntry+0x124>
80001150:	00000000 	sll	$0,$0,0x0
80001154:	24020020 	addiu	$2,$0,32
80001158:	afc2001c 	sw	$2,28($30)
8000115c:	1000000f 	beqz	$0,8000119c <_Z6updateb17RoutingTableEntry+0x15c>
80001160:	00000000 	sll	$0,$0,0x0
80001164:	afc0001c 	sw	$0,28($30)
80001168:	2403001f 	addiu	$3,$0,31
8000116c:	8fc2001c 	lw	$2,28($30)
80001170:	00621023 	subu	$2,$3,$2
80001174:	8fc30034 	lw	$3,52($30)
80001178:	00431006 	srlv	$2,$3,$2
8000117c:	30420001 	andi	$2,$2,0x1
80001180:	10400006 	beqz	$2,8000119c <_Z6updateb17RoutingTableEntry+0x15c>
80001184:	00000000 	sll	$0,$0,0x0
80001188:	8fc2001c 	lw	$2,28($30)
8000118c:	24420001 	addiu	$2,$2,1
80001190:	afc2001c 	sw	$2,28($30)
80001194:	1000fff4 	beqz	$0,80001168 <_Z6updateb17RoutingTableEntry+0x128>
80001198:	00000000 	sll	$0,$0,0x0
8000119c:	3c02bd00 	lui	$2,0xbd00
800011a0:	afc20038 	sw	$2,56($30)
800011a4:	3c02bd00 	lui	$2,0xbd00
800011a8:	afc2003c 	sw	$2,60($30)
800011ac:	8fc20038 	lw	$2,56($30)
800011b0:	24030001 	addiu	$3,$0,1
800011b4:	a0430000 	sb	$3,0($2)
800011b8:	8fc20038 	lw	$2,56($30)
800011bc:	24420001 	addiu	$2,$2,1
800011c0:	24030001 	addiu	$3,$0,1
800011c4:	a0430000 	sb	$3,0($2)
800011c8:	8fc20038 	lw	$2,56($30)
800011cc:	24420002 	addiu	$2,$2,2
800011d0:	24030001 	addiu	$3,$0,1
800011d4:	a0430000 	sb	$3,0($2)
800011d8:	8fc20038 	lw	$2,56($30)
800011dc:	24420003 	addiu	$2,$2,3
800011e0:	24030001 	addiu	$3,$0,1
800011e4:	a0430000 	sb	$3,0($2)
800011e8:	8fc20038 	lw	$2,56($30)
800011ec:	24420004 	addiu	$2,$2,4
800011f0:	24030001 	addiu	$3,$0,1
800011f4:	a0430000 	sb	$3,0($2)
800011f8:	8fc20038 	lw	$2,56($30)
800011fc:	24420005 	addiu	$2,$2,5
80001200:	24030001 	addiu	$3,$0,1
80001204:	a0430000 	sb	$3,0($2)
80001208:	8fc20038 	lw	$2,56($30)
8000120c:	24420006 	addiu	$2,$2,6
80001210:	24030001 	addiu	$3,$0,1
80001214:	a0430000 	sb	$3,0($2)
80001218:	8fc20038 	lw	$2,56($30)
8000121c:	24420007 	addiu	$2,$2,7
80001220:	24030001 	addiu	$3,$0,1
80001224:	a0430000 	sb	$3,0($2)
80001228:	3c028000 	lui	$2,0x8000
8000122c:	24443f34 	addiu	$4,$2,16180
80001230:	0c000111 	jal	80000444 <_Z9putstringPKc>
80001234:	00000000 	sll	$0,$0,0x0
80001238:	8fc2002c 	lw	$2,44($30)
8000123c:	00003825 	or	$7,$0,$0
80001240:	24060010 	addiu	$6,$0,16
80001244:	24050008 	addiu	$5,$0,8
80001248:	00402025 	or	$4,$2,$0
8000124c:	0c000135 	jal	800004d4 <_Z9printbaseliii>
80001250:	00000000 	sll	$0,$0,0x0
80001254:	24040020 	addiu	$4,$0,32
80001258:	0c000100 	jal	80000400 <putchar>
8000125c:	00000000 	sll	$0,$0,0x0
80001260:	00003825 	or	$7,$0,$0
80001264:	2406000a 	addiu	$6,$0,10
80001268:	24050001 	addiu	$5,$0,1
8000126c:	8fc4001c 	lw	$4,28($30)
80001270:	0c000135 	jal	800004d4 <_Z9printbaseliii>
80001274:	00000000 	sll	$0,$0,0x0
80001278:	24040020 	addiu	$4,$0,32
8000127c:	0c000100 	jal	80000400 <putchar>
80001280:	00000000 	sll	$0,$0,0x0
80001284:	8fc20030 	lw	$2,48($30)
80001288:	00003825 	or	$7,$0,$0
8000128c:	24060010 	addiu	$6,$0,16
80001290:	24050008 	addiu	$5,$0,8
80001294:	00402025 	or	$4,$2,$0
80001298:	0c000135 	jal	800004d4 <_Z9printbaseliii>
8000129c:	00000000 	sll	$0,$0,0x0
800012a0:	2404000a 	addiu	$4,$0,10
800012a4:	0c000100 	jal	80000400 <putchar>
800012a8:	00000000 	sll	$0,$0,0x0
800012ac:	93c20050 	lbu	$2,80($30)
800012b0:	1040020b 	beqz	$2,80001ae0 <_Z6updateb17RoutingTableEntry+0xaa0>
800012b4:	00000000 	sll	$0,$0,0x0
800012b8:	afc00020 	sw	$0,32($30)
800012bc:	8fc30020 	lw	$3,32($30)
800012c0:	8fc2001c 	lw	$2,28($30)
800012c4:	0062102a 	slt	$2,$3,$2
800012c8:	1040028f 	beqz	$2,80001d08 <_Z6updateb17RoutingTableEntry+0xcc8>
800012cc:	00000000 	sll	$0,$0,0x0
800012d0:	8fc30028 	lw	$3,40($30)
800012d4:	8fc20020 	lw	$2,32($30)
800012d8:	00431806 	srlv	$3,$3,$2
800012dc:	8fc2002c 	lw	$2,44($30)
800012e0:	00621024 	and	$2,$3,$2
800012e4:	0002102b 	sltu	$2,$0,$2
800012e8:	304200ff 	andi	$2,$2,0xff
800012ec:	afc20040 	sw	$2,64($30)
800012f0:	8fc20040 	lw	$2,64($30)
800012f4:	144000fc 	bnez	$2,800016e8 <_Z6updateb17RoutingTableEntry+0x6a8>
800012f8:	00000000 	sll	$0,$0,0x0
800012fc:	3c028000 	lui	$2,0x8000
80001300:	8fc30018 	lw	$3,24($30)
80001304:	00031940 	sll	$3,$3,0x5
80001308:	244242f0 	addiu	$2,$2,17136
8000130c:	00621021 	addu	$2,$3,$2
80001310:	8c420018 	lw	$2,24($2)
80001314:	144000ab 	bnez	$2,800015c4 <_Z6updateb17RoutingTableEntry+0x584>
80001318:	00000000 	sll	$0,$0,0x0
8000131c:	3c028000 	lui	$2,0x8000
80001320:	8c424298 	lw	$2,17048($2)
80001324:	24430001 	addiu	$3,$2,1
80001328:	3c028000 	lui	$2,0x8000
8000132c:	ac434298 	sw	$3,17048($2)
80001330:	3c028000 	lui	$2,0x8000
80001334:	8c434298 	lw	$3,17048($2)
80001338:	3c028000 	lui	$2,0x8000
8000133c:	8fc40018 	lw	$4,24($30)
80001340:	00042140 	sll	$4,$4,0x5
80001344:	244242f0 	addiu	$2,$2,17136
80001348:	00821021 	addu	$2,$4,$2
8000134c:	ac430018 	sw	$3,24($2)
80001350:	8fc20018 	lw	$2,24($30)
80001354:	000210c0 	sll	$2,$2,0x3
80001358:	00401825 	or	$3,$2,$0
8000135c:	3c02bd00 	lui	$2,0xbd00
80001360:	34420004 	ori	$2,$2,0x4
80001364:	00621021 	addu	$2,$3,$2
80001368:	afc2003c 	sw	$2,60($30)
8000136c:	3c038000 	lui	$3,0x8000
80001370:	8fc20018 	lw	$2,24($30)
80001374:	246342f0 	addiu	$3,$3,17136
80001378:	00021140 	sll	$2,$2,0x5
8000137c:	00621021 	addu	$2,$3,$2
80001380:	8c42001c 	lw	$2,28($2)
80001384:	00021c00 	sll	$3,$2,0x10
80001388:	3c028000 	lui	$2,0x8000
8000138c:	8fc40018 	lw	$4,24($30)
80001390:	00042140 	sll	$4,$4,0x5
80001394:	244242f0 	addiu	$2,$2,17136
80001398:	00821021 	addu	$2,$4,$2
8000139c:	8c420018 	lw	$2,24($2)
800013a0:	00621825 	or	$3,$3,$2
800013a4:	8fc2003c 	lw	$2,60($30)
800013a8:	ac430000 	sw	$3,0($2)
800013ac:	3c028000 	lui	$2,0x8000
800013b0:	8c434298 	lw	$3,17048($2)
800013b4:	3c028000 	lui	$2,0x8000
800013b8:	00031940 	sll	$3,$3,0x5
800013bc:	244242f0 	addiu	$2,$2,17136
800013c0:	00621021 	addu	$2,$3,$2
800013c4:	ac400018 	sw	$0,24($2)
800013c8:	3c028000 	lui	$2,0x8000
800013cc:	8c424298 	lw	$2,17048($2)
800013d0:	3c038000 	lui	$3,0x8000
800013d4:	246342f0 	addiu	$3,$3,17136
800013d8:	00021140 	sll	$2,$2,0x5
800013dc:	00621021 	addu	$2,$3,$2
800013e0:	ac40001c 	sw	$0,28($2)
800013e4:	8fc2001c 	lw	$2,28($30)
800013e8:	2442ffff 	addiu	$2,$2,-1
800013ec:	8fc30020 	lw	$3,32($30)
800013f0:	14620045 	bne	$3,$2,80001508 <_Z6updateb17RoutingTableEntry+0x4c8>
800013f4:	00000000 	sll	$0,$0,0x0
800013f8:	3c028000 	lui	$2,0x8000
800013fc:	8c444298 	lw	$4,17048($2)
80001400:	8fc30054 	lw	$3,84($30)
80001404:	3c028000 	lui	$2,0x8000
80001408:	00042140 	sll	$4,$4,0x5
8000140c:	244242f0 	addiu	$2,$2,17136
80001410:	00821021 	addu	$2,$4,$2
80001414:	ac430000 	sw	$3,0($2)
80001418:	3c028000 	lui	$2,0x8000
8000141c:	8c444298 	lw	$4,17048($2)
80001420:	8fc30064 	lw	$3,100($30)
80001424:	3c028000 	lui	$2,0x8000
80001428:	00042140 	sll	$4,$4,0x5
8000142c:	244242f0 	addiu	$2,$2,17136
80001430:	00821021 	addu	$2,$4,$2
80001434:	ac430010 	sw	$3,16($2)
80001438:	3c028000 	lui	$2,0x8000
8000143c:	8c424298 	lw	$2,17048($2)
80001440:	8fc30058 	lw	$3,88($30)
80001444:	3c048000 	lui	$4,0x8000
80001448:	248442f0 	addiu	$4,$4,17136
8000144c:	00021140 	sll	$2,$2,0x5
80001450:	00821021 	addu	$2,$4,$2
80001454:	ac430004 	sw	$3,4($2)
80001458:	3c028000 	lui	$2,0x8000
8000145c:	8c424298 	lw	$2,17048($2)
80001460:	8fc30060 	lw	$3,96($30)
80001464:	3c048000 	lui	$4,0x8000
80001468:	248442f0 	addiu	$4,$4,17136
8000146c:	00021140 	sll	$2,$2,0x5
80001470:	00821021 	addu	$2,$4,$2
80001474:	ac43000c 	sw	$3,12($2)
80001478:	3c028000 	lui	$2,0x8000
8000147c:	8c444298 	lw	$4,17048($2)
80001480:	8fc3005c 	lw	$3,92($30)
80001484:	3c028000 	lui	$2,0x8000
80001488:	00042140 	sll	$4,$4,0x5
8000148c:	244242f0 	addiu	$2,$2,17136
80001490:	00821021 	addu	$2,$4,$2
80001494:	ac430008 	sw	$3,8($2)
80001498:	3c028000 	lui	$2,0x8000
8000149c:	8c424298 	lw	$2,17048($2)
800014a0:	000218c0 	sll	$3,$2,0x3
800014a4:	3c02bd00 	lui	$2,0xbd00
800014a8:	00621021 	addu	$2,$3,$2
800014ac:	afc2003c 	sw	$2,60($30)
800014b0:	8fc2003c 	lw	$2,60($30)
800014b4:	8fc30030 	lw	$3,48($30)
800014b8:	ac430000 	sw	$3,0($2)
800014bc:	3c028000 	lui	$2,0x8000
800014c0:	8c434298 	lw	$3,17048($2)
800014c4:	3c02bf00 	lui	$2,0xbf00
800014c8:	00621021 	addu	$2,$3,$2
800014cc:	afc20038 	sw	$2,56($30)
800014d0:	8fc20058 	lw	$2,88($30)
800014d4:	304300ff 	andi	$3,$2,0xff
800014d8:	8fc20038 	lw	$2,56($30)
800014dc:	a0430000 	sb	$3,0($2)
800014e0:	3c028000 	lui	$2,0x8000
800014e4:	8c424298 	lw	$2,17048($2)
800014e8:	8fc30068 	lw	$3,104($30)
800014ec:	3c048000 	lui	$4,0x8000
800014f0:	248442f0 	addiu	$4,$4,17136
800014f4:	00021140 	sll	$2,$2,0x5
800014f8:	00821021 	addu	$2,$4,$2
800014fc:	ac430014 	sw	$3,20($2)
80001500:	1000002b 	beqz	$0,800015b0 <_Z6updateb17RoutingTableEntry+0x570>
80001504:	00000000 	sll	$0,$0,0x0
80001508:	3c028000 	lui	$2,0x8000
8000150c:	8c434298 	lw	$3,17048($2)
80001510:	3c028000 	lui	$2,0x8000
80001514:	00031940 	sll	$3,$3,0x5
80001518:	244242f0 	addiu	$2,$2,17136
8000151c:	00621021 	addu	$2,$3,$2
80001520:	ac400000 	sw	$0,0($2)
80001524:	3c028000 	lui	$2,0x8000
80001528:	8c434298 	lw	$3,17048($2)
8000152c:	3c028000 	lui	$2,0x8000
80001530:	00031940 	sll	$3,$3,0x5
80001534:	244242f0 	addiu	$2,$2,17136
80001538:	00621021 	addu	$2,$3,$2
8000153c:	ac400010 	sw	$0,16($2)
80001540:	3c028000 	lui	$2,0x8000
80001544:	8c424298 	lw	$2,17048($2)
80001548:	3c038000 	lui	$3,0x8000
8000154c:	246342f0 	addiu	$3,$3,17136
80001550:	00021140 	sll	$2,$2,0x5
80001554:	00621021 	addu	$2,$3,$2
80001558:	ac400004 	sw	$0,4($2)
8000155c:	3c028000 	lui	$2,0x8000
80001560:	8c424298 	lw	$2,17048($2)
80001564:	3c038000 	lui	$3,0x8000
80001568:	246342f0 	addiu	$3,$3,17136
8000156c:	00021140 	sll	$2,$2,0x5
80001570:	00621021 	addu	$2,$3,$2
80001574:	ac40000c 	sw	$0,12($2)
80001578:	3c028000 	lui	$2,0x8000
8000157c:	8c434298 	lw	$3,17048($2)
80001580:	3c028000 	lui	$2,0x8000
80001584:	00031940 	sll	$3,$3,0x5
80001588:	244242f0 	addiu	$2,$2,17136
8000158c:	00621021 	addu	$2,$3,$2
80001590:	ac400008 	sw	$0,8($2)
80001594:	3c028000 	lui	$2,0x8000
80001598:	8c424298 	lw	$2,17048($2)
8000159c:	3c038000 	lui	$3,0x8000
800015a0:	246342f0 	addiu	$3,$3,17136
800015a4:	00021140 	sll	$2,$2,0x5
800015a8:	00621021 	addu	$2,$3,$2
800015ac:	ac400014 	sw	$0,20($2)
800015b0:	3c028000 	lui	$2,0x8000
800015b4:	8c424298 	lw	$2,17048($2)
800015b8:	afc20018 	sw	$2,24($30)
800015bc:	10000143 	beqz	$0,80001acc <_Z6updateb17RoutingTableEntry+0xa8c>
800015c0:	00000000 	sll	$0,$0,0x0
800015c4:	3c028000 	lui	$2,0x8000
800015c8:	8fc30018 	lw	$3,24($30)
800015cc:	00031940 	sll	$3,$3,0x5
800015d0:	244242f0 	addiu	$2,$2,17136
800015d4:	00621021 	addu	$2,$3,$2
800015d8:	8c420018 	lw	$2,24($2)
800015dc:	afc20018 	sw	$2,24($30)
800015e0:	8fc2001c 	lw	$2,28($30)
800015e4:	2442ffff 	addiu	$2,$2,-1
800015e8:	8fc30020 	lw	$3,32($30)
800015ec:	14620137 	bne	$3,$2,80001acc <_Z6updateb17RoutingTableEntry+0xa8c>
800015f0:	00000000 	sll	$0,$0,0x0
800015f4:	8fc30054 	lw	$3,84($30)
800015f8:	3c028000 	lui	$2,0x8000
800015fc:	8fc40018 	lw	$4,24($30)
80001600:	00042140 	sll	$4,$4,0x5
80001604:	244242f0 	addiu	$2,$2,17136
80001608:	00821021 	addu	$2,$4,$2
8000160c:	ac430000 	sw	$3,0($2)
80001610:	8fc30064 	lw	$3,100($30)
80001614:	3c028000 	lui	$2,0x8000
80001618:	8fc40018 	lw	$4,24($30)
8000161c:	00042140 	sll	$4,$4,0x5
80001620:	244242f0 	addiu	$2,$2,17136
80001624:	00821021 	addu	$2,$4,$2
80001628:	ac430010 	sw	$3,16($2)
8000162c:	8fc30058 	lw	$3,88($30)
80001630:	3c048000 	lui	$4,0x8000
80001634:	8fc20018 	lw	$2,24($30)
80001638:	248442f0 	addiu	$4,$4,17136
8000163c:	00021140 	sll	$2,$2,0x5
80001640:	00821021 	addu	$2,$4,$2
80001644:	ac430004 	sw	$3,4($2)
80001648:	8fc30060 	lw	$3,96($30)
8000164c:	3c048000 	lui	$4,0x8000
80001650:	8fc20018 	lw	$2,24($30)
80001654:	248442f0 	addiu	$4,$4,17136
80001658:	00021140 	sll	$2,$2,0x5
8000165c:	00821021 	addu	$2,$4,$2
80001660:	ac43000c 	sw	$3,12($2)
80001664:	8fc3005c 	lw	$3,92($30)
80001668:	3c028000 	lui	$2,0x8000
8000166c:	8fc40018 	lw	$4,24($30)
80001670:	00042140 	sll	$4,$4,0x5
80001674:	244242f0 	addiu	$2,$2,17136
80001678:	00821021 	addu	$2,$4,$2
8000167c:	ac430008 	sw	$3,8($2)
80001680:	8fc20018 	lw	$2,24($30)
80001684:	000210c0 	sll	$2,$2,0x3
80001688:	00401825 	or	$3,$2,$0
8000168c:	3c02bd00 	lui	$2,0xbd00
80001690:	00621021 	addu	$2,$3,$2
80001694:	afc2003c 	sw	$2,60($30)
80001698:	8fc2003c 	lw	$2,60($30)
8000169c:	8fc30030 	lw	$3,48($30)
800016a0:	ac430000 	sw	$3,0($2)
800016a4:	8fc30018 	lw	$3,24($30)
800016a8:	3c02bf00 	lui	$2,0xbf00
800016ac:	00621021 	addu	$2,$3,$2
800016b0:	afc20038 	sw	$2,56($30)
800016b4:	8fc20058 	lw	$2,88($30)
800016b8:	304300ff 	andi	$3,$2,0xff
800016bc:	8fc20038 	lw	$2,56($30)
800016c0:	a0430000 	sb	$3,0($2)
800016c4:	8fc30068 	lw	$3,104($30)
800016c8:	3c048000 	lui	$4,0x8000
800016cc:	8fc20018 	lw	$2,24($30)
800016d0:	248442f0 	addiu	$4,$4,17136
800016d4:	00021140 	sll	$2,$2,0x5
800016d8:	00821021 	addu	$2,$4,$2
800016dc:	ac430014 	sw	$3,20($2)
800016e0:	100000fa 	beqz	$0,80001acc <_Z6updateb17RoutingTableEntry+0xa8c>
800016e4:	00000000 	sll	$0,$0,0x0
800016e8:	3c038000 	lui	$3,0x8000
800016ec:	8fc20018 	lw	$2,24($30)
800016f0:	246342f0 	addiu	$3,$3,17136
800016f4:	00021140 	sll	$2,$2,0x5
800016f8:	00621021 	addu	$2,$3,$2
800016fc:	8c42001c 	lw	$2,28($2)
80001700:	144000ab 	bnez	$2,800019b0 <_Z6updateb17RoutingTableEntry+0x970>
80001704:	00000000 	sll	$0,$0,0x0
80001708:	3c028000 	lui	$2,0x8000
8000170c:	8c424298 	lw	$2,17048($2)
80001710:	24430001 	addiu	$3,$2,1
80001714:	3c028000 	lui	$2,0x8000
80001718:	ac434298 	sw	$3,17048($2)
8000171c:	3c028000 	lui	$2,0x8000
80001720:	8c434298 	lw	$3,17048($2)
80001724:	3c048000 	lui	$4,0x8000
80001728:	8fc20018 	lw	$2,24($30)
8000172c:	248442f0 	addiu	$4,$4,17136
80001730:	00021140 	sll	$2,$2,0x5
80001734:	00821021 	addu	$2,$4,$2
80001738:	ac43001c 	sw	$3,28($2)
8000173c:	8fc20018 	lw	$2,24($30)
80001740:	000210c0 	sll	$2,$2,0x3
80001744:	00401825 	or	$3,$2,$0
80001748:	3c02bd00 	lui	$2,0xbd00
8000174c:	34420004 	ori	$2,$2,0x4
80001750:	00621021 	addu	$2,$3,$2
80001754:	afc2003c 	sw	$2,60($30)
80001758:	3c038000 	lui	$3,0x8000
8000175c:	8fc20018 	lw	$2,24($30)
80001760:	246342f0 	addiu	$3,$3,17136
80001764:	00021140 	sll	$2,$2,0x5
80001768:	00621021 	addu	$2,$3,$2
8000176c:	8c42001c 	lw	$2,28($2)
80001770:	00021c00 	sll	$3,$2,0x10
80001774:	3c028000 	lui	$2,0x8000
80001778:	8fc40018 	lw	$4,24($30)
8000177c:	00042140 	sll	$4,$4,0x5
80001780:	244242f0 	addiu	$2,$2,17136
80001784:	00821021 	addu	$2,$4,$2
80001788:	8c420018 	lw	$2,24($2)
8000178c:	00621825 	or	$3,$3,$2
80001790:	8fc2003c 	lw	$2,60($30)
80001794:	ac430000 	sw	$3,0($2)
80001798:	3c028000 	lui	$2,0x8000
8000179c:	8c434298 	lw	$3,17048($2)
800017a0:	3c028000 	lui	$2,0x8000
800017a4:	00031940 	sll	$3,$3,0x5
800017a8:	244242f0 	addiu	$2,$2,17136
800017ac:	00621021 	addu	$2,$3,$2
800017b0:	ac400018 	sw	$0,24($2)
800017b4:	3c028000 	lui	$2,0x8000
800017b8:	8c424298 	lw	$2,17048($2)
800017bc:	3c038000 	lui	$3,0x8000
800017c0:	246342f0 	addiu	$3,$3,17136
800017c4:	00021140 	sll	$2,$2,0x5
800017c8:	00621021 	addu	$2,$3,$2
800017cc:	ac40001c 	sw	$0,28($2)
800017d0:	8fc2001c 	lw	$2,28($30)
800017d4:	2442ffff 	addiu	$2,$2,-1
800017d8:	8fc30020 	lw	$3,32($30)
800017dc:	14620045 	bne	$3,$2,800018f4 <_Z6updateb17RoutingTableEntry+0x8b4>
800017e0:	00000000 	sll	$0,$0,0x0
800017e4:	3c028000 	lui	$2,0x8000
800017e8:	8c444298 	lw	$4,17048($2)
800017ec:	8fc30054 	lw	$3,84($30)
800017f0:	3c028000 	lui	$2,0x8000
800017f4:	00042140 	sll	$4,$4,0x5
800017f8:	244242f0 	addiu	$2,$2,17136
800017fc:	00821021 	addu	$2,$4,$2
80001800:	ac430000 	sw	$3,0($2)
80001804:	3c028000 	lui	$2,0x8000
80001808:	8c444298 	lw	$4,17048($2)
8000180c:	8fc30064 	lw	$3,100($30)
80001810:	3c028000 	lui	$2,0x8000
80001814:	00042140 	sll	$4,$4,0x5
80001818:	244242f0 	addiu	$2,$2,17136
8000181c:	00821021 	addu	$2,$4,$2
80001820:	ac430010 	sw	$3,16($2)
80001824:	3c028000 	lui	$2,0x8000
80001828:	8c424298 	lw	$2,17048($2)
8000182c:	8fc30058 	lw	$3,88($30)
80001830:	3c048000 	lui	$4,0x8000
80001834:	248442f0 	addiu	$4,$4,17136
80001838:	00021140 	sll	$2,$2,0x5
8000183c:	00821021 	addu	$2,$4,$2
80001840:	ac430004 	sw	$3,4($2)
80001844:	3c028000 	lui	$2,0x8000
80001848:	8c424298 	lw	$2,17048($2)
8000184c:	8fc30060 	lw	$3,96($30)
80001850:	3c048000 	lui	$4,0x8000
80001854:	248442f0 	addiu	$4,$4,17136
80001858:	00021140 	sll	$2,$2,0x5
8000185c:	00821021 	addu	$2,$4,$2
80001860:	ac43000c 	sw	$3,12($2)
80001864:	3c028000 	lui	$2,0x8000
80001868:	8c444298 	lw	$4,17048($2)
8000186c:	8fc3005c 	lw	$3,92($30)
80001870:	3c028000 	lui	$2,0x8000
80001874:	00042140 	sll	$4,$4,0x5
80001878:	244242f0 	addiu	$2,$2,17136
8000187c:	00821021 	addu	$2,$4,$2
80001880:	ac430008 	sw	$3,8($2)
80001884:	3c028000 	lui	$2,0x8000
80001888:	8c424298 	lw	$2,17048($2)
8000188c:	000218c0 	sll	$3,$2,0x3
80001890:	3c02bd00 	lui	$2,0xbd00
80001894:	00621021 	addu	$2,$3,$2
80001898:	afc2003c 	sw	$2,60($30)
8000189c:	8fc2003c 	lw	$2,60($30)
800018a0:	8fc30030 	lw	$3,48($30)
800018a4:	ac430000 	sw	$3,0($2)
800018a8:	3c028000 	lui	$2,0x8000
800018ac:	8c434298 	lw	$3,17048($2)
800018b0:	3c02bf00 	lui	$2,0xbf00
800018b4:	00621021 	addu	$2,$3,$2
800018b8:	afc20038 	sw	$2,56($30)
800018bc:	8fc20058 	lw	$2,88($30)
800018c0:	304300ff 	andi	$3,$2,0xff
800018c4:	8fc20038 	lw	$2,56($30)
800018c8:	a0430000 	sb	$3,0($2)
800018cc:	3c028000 	lui	$2,0x8000
800018d0:	8c424298 	lw	$2,17048($2)
800018d4:	8fc30068 	lw	$3,104($30)
800018d8:	3c048000 	lui	$4,0x8000
800018dc:	248442f0 	addiu	$4,$4,17136
800018e0:	00021140 	sll	$2,$2,0x5
800018e4:	00821021 	addu	$2,$4,$2
800018e8:	ac430014 	sw	$3,20($2)
800018ec:	1000002b 	beqz	$0,8000199c <_Z6updateb17RoutingTableEntry+0x95c>
800018f0:	00000000 	sll	$0,$0,0x0
800018f4:	3c028000 	lui	$2,0x8000
800018f8:	8c434298 	lw	$3,17048($2)
800018fc:	3c028000 	lui	$2,0x8000
80001900:	00031940 	sll	$3,$3,0x5
80001904:	244242f0 	addiu	$2,$2,17136
80001908:	00621021 	addu	$2,$3,$2
8000190c:	ac400000 	sw	$0,0($2)
80001910:	3c028000 	lui	$2,0x8000
80001914:	8c434298 	lw	$3,17048($2)
80001918:	3c028000 	lui	$2,0x8000
8000191c:	00031940 	sll	$3,$3,0x5
80001920:	244242f0 	addiu	$2,$2,17136
80001924:	00621021 	addu	$2,$3,$2
80001928:	ac400010 	sw	$0,16($2)
8000192c:	3c028000 	lui	$2,0x8000
80001930:	8c424298 	lw	$2,17048($2)
80001934:	3c038000 	lui	$3,0x8000
80001938:	246342f0 	addiu	$3,$3,17136
8000193c:	00021140 	sll	$2,$2,0x5
80001940:	00621021 	addu	$2,$3,$2
80001944:	ac400004 	sw	$0,4($2)
80001948:	3c028000 	lui	$2,0x8000
8000194c:	8c424298 	lw	$2,17048($2)
80001950:	3c038000 	lui	$3,0x8000
80001954:	246342f0 	addiu	$3,$3,17136
80001958:	00021140 	sll	$2,$2,0x5
8000195c:	00621021 	addu	$2,$3,$2
80001960:	ac40000c 	sw	$0,12($2)
80001964:	3c028000 	lui	$2,0x8000
80001968:	8c434298 	lw	$3,17048($2)
8000196c:	3c028000 	lui	$2,0x8000
80001970:	00031940 	sll	$3,$3,0x5
80001974:	244242f0 	addiu	$2,$2,17136
80001978:	00621021 	addu	$2,$3,$2
8000197c:	ac400008 	sw	$0,8($2)
80001980:	3c028000 	lui	$2,0x8000
80001984:	8c424298 	lw	$2,17048($2)
80001988:	3c038000 	lui	$3,0x8000
8000198c:	246342f0 	addiu	$3,$3,17136
80001990:	00021140 	sll	$2,$2,0x5
80001994:	00621021 	addu	$2,$3,$2
80001998:	ac400014 	sw	$0,20($2)
8000199c:	3c028000 	lui	$2,0x8000
800019a0:	8c424298 	lw	$2,17048($2)
800019a4:	afc20018 	sw	$2,24($30)
800019a8:	10000048 	beqz	$0,80001acc <_Z6updateb17RoutingTableEntry+0xa8c>
800019ac:	00000000 	sll	$0,$0,0x0
800019b0:	3c038000 	lui	$3,0x8000
800019b4:	8fc20018 	lw	$2,24($30)
800019b8:	246342f0 	addiu	$3,$3,17136
800019bc:	00021140 	sll	$2,$2,0x5
800019c0:	00621021 	addu	$2,$3,$2
800019c4:	8c42001c 	lw	$2,28($2)
800019c8:	afc20018 	sw	$2,24($30)
800019cc:	8fc2001c 	lw	$2,28($30)
800019d0:	2442ffff 	addiu	$2,$2,-1
800019d4:	8fc30020 	lw	$3,32($30)
800019d8:	1462003c 	bne	$3,$2,80001acc <_Z6updateb17RoutingTableEntry+0xa8c>
800019dc:	00000000 	sll	$0,$0,0x0
800019e0:	8fc30054 	lw	$3,84($30)
800019e4:	3c028000 	lui	$2,0x8000
800019e8:	8fc40018 	lw	$4,24($30)
800019ec:	00042140 	sll	$4,$4,0x5
800019f0:	244242f0 	addiu	$2,$2,17136
800019f4:	00821021 	addu	$2,$4,$2
800019f8:	ac430000 	sw	$3,0($2)
800019fc:	8fc30064 	lw	$3,100($30)
80001a00:	3c028000 	lui	$2,0x8000
80001a04:	8fc40018 	lw	$4,24($30)
80001a08:	00042140 	sll	$4,$4,0x5
80001a0c:	244242f0 	addiu	$2,$2,17136
80001a10:	00821021 	addu	$2,$4,$2
80001a14:	ac430010 	sw	$3,16($2)
80001a18:	8fc30058 	lw	$3,88($30)
80001a1c:	3c048000 	lui	$4,0x8000
80001a20:	8fc20018 	lw	$2,24($30)
80001a24:	248442f0 	addiu	$4,$4,17136
80001a28:	00021140 	sll	$2,$2,0x5
80001a2c:	00821021 	addu	$2,$4,$2
80001a30:	ac430004 	sw	$3,4($2)
80001a34:	8fc30060 	lw	$3,96($30)
80001a38:	3c048000 	lui	$4,0x8000
80001a3c:	8fc20018 	lw	$2,24($30)
80001a40:	248442f0 	addiu	$4,$4,17136
80001a44:	00021140 	sll	$2,$2,0x5
80001a48:	00821021 	addu	$2,$4,$2
80001a4c:	ac43000c 	sw	$3,12($2)
80001a50:	8fc3005c 	lw	$3,92($30)
80001a54:	3c028000 	lui	$2,0x8000
80001a58:	8fc40018 	lw	$4,24($30)
80001a5c:	00042140 	sll	$4,$4,0x5
80001a60:	244242f0 	addiu	$2,$2,17136
80001a64:	00821021 	addu	$2,$4,$2
80001a68:	ac430008 	sw	$3,8($2)
80001a6c:	8fc20018 	lw	$2,24($30)
80001a70:	000210c0 	sll	$2,$2,0x3
80001a74:	00401825 	or	$3,$2,$0
80001a78:	3c02bd00 	lui	$2,0xbd00
80001a7c:	00621021 	addu	$2,$3,$2
80001a80:	afc2003c 	sw	$2,60($30)
80001a84:	8fc2003c 	lw	$2,60($30)
80001a88:	8fc30030 	lw	$3,48($30)
80001a8c:	ac430000 	sw	$3,0($2)
80001a90:	8fc30018 	lw	$3,24($30)
80001a94:	3c02bf00 	lui	$2,0xbf00
80001a98:	00621021 	addu	$2,$3,$2
80001a9c:	afc20038 	sw	$2,56($30)
80001aa0:	8fc20058 	lw	$2,88($30)
80001aa4:	304300ff 	andi	$3,$2,0xff
80001aa8:	8fc20038 	lw	$2,56($30)
80001aac:	a0430000 	sb	$3,0($2)
80001ab0:	8fc30068 	lw	$3,104($30)
80001ab4:	3c048000 	lui	$4,0x8000
80001ab8:	8fc20018 	lw	$2,24($30)
80001abc:	248442f0 	addiu	$4,$4,17136
80001ac0:	00021140 	sll	$2,$2,0x5
80001ac4:	00821021 	addu	$2,$4,$2
80001ac8:	ac430014 	sw	$3,20($2)
80001acc:	8fc20020 	lw	$2,32($30)
80001ad0:	24420001 	addiu	$2,$2,1
80001ad4:	afc20020 	sw	$2,32($30)
80001ad8:	1000fdf8 	beqz	$0,800012bc <_Z6updateb17RoutingTableEntry+0x27c>
80001adc:	00000000 	sll	$0,$0,0x0
80001ae0:	afc00024 	sw	$0,36($30)
80001ae4:	8fc30024 	lw	$3,36($30)
80001ae8:	8fc2001c 	lw	$2,28($30)
80001aec:	0062102a 	slt	$2,$3,$2
80001af0:	10400085 	beqz	$2,80001d08 <_Z6updateb17RoutingTableEntry+0xcc8>
80001af4:	00000000 	sll	$0,$0,0x0
80001af8:	8fc30028 	lw	$3,40($30)
80001afc:	8fc20024 	lw	$2,36($30)
80001b00:	00431806 	srlv	$3,$3,$2
80001b04:	8fc2002c 	lw	$2,44($30)
80001b08:	00621024 	and	$2,$3,$2
80001b0c:	0002102b 	sltu	$2,$0,$2
80001b10:	304200ff 	andi	$2,$2,0xff
80001b14:	afc20040 	sw	$2,64($30)
80001b18:	8fc20040 	lw	$2,64($30)
80001b1c:	1440003a 	bnez	$2,80001c08 <_Z6updateb17RoutingTableEntry+0xbc8>
80001b20:	00000000 	sll	$0,$0,0x0
80001b24:	3c028000 	lui	$2,0x8000
80001b28:	8fc30018 	lw	$3,24($30)
80001b2c:	00031940 	sll	$3,$3,0x5
80001b30:	244242f0 	addiu	$2,$2,17136
80001b34:	00621021 	addu	$2,$3,$2
80001b38:	8c420018 	lw	$2,24($2)
80001b3c:	1040006e 	beqz	$2,80001cf8 <_Z6updateb17RoutingTableEntry+0xcb8>
80001b40:	00000000 	sll	$0,$0,0x0
80001b44:	8fc2001c 	lw	$2,28($30)
80001b48:	2442fffe 	addiu	$2,$2,-2
80001b4c:	8fc30024 	lw	$3,36($30)
80001b50:	14620024 	bne	$3,$2,80001be4 <_Z6updateb17RoutingTableEntry+0xba4>
80001b54:	00000000 	sll	$0,$0,0x0
80001b58:	3c028000 	lui	$2,0x8000
80001b5c:	8fc30018 	lw	$3,24($30)
80001b60:	00031940 	sll	$3,$3,0x5
80001b64:	244242f0 	addiu	$2,$2,17136
80001b68:	00621021 	addu	$2,$3,$2
80001b6c:	8c430018 	lw	$3,24($2)
80001b70:	3c028000 	lui	$2,0x8000
80001b74:	00031940 	sll	$3,$3,0x5
80001b78:	244242f0 	addiu	$2,$2,17136
80001b7c:	00621021 	addu	$2,$3,$2
80001b80:	ac400008 	sw	$0,8($2)
80001b84:	3c028000 	lui	$2,0x8000
80001b88:	8fc30018 	lw	$3,24($30)
80001b8c:	00031940 	sll	$3,$3,0x5
80001b90:	244242f0 	addiu	$2,$2,17136
80001b94:	00621021 	addu	$2,$3,$2
80001b98:	ac400018 	sw	$0,24($2)
80001b9c:	8fc20018 	lw	$2,24($30)
80001ba0:	000210c0 	sll	$2,$2,0x3
80001ba4:	00401825 	or	$3,$2,$0
80001ba8:	3c02bd00 	lui	$2,0xbd00
80001bac:	00621021 	addu	$2,$3,$2
80001bb0:	afc2003c 	sw	$2,60($30)
80001bb4:	8fc2003c 	lw	$2,60($30)
80001bb8:	ac400000 	sw	$0,0($2)
80001bbc:	8fc30018 	lw	$3,24($30)
80001bc0:	3c02bf00 	lui	$2,0xbf00
80001bc4:	00621021 	addu	$2,$3,$2
80001bc8:	afc20038 	sw	$2,56($30)
80001bcc:	8fc20058 	lw	$2,88($30)
80001bd0:	304300ff 	andi	$3,$2,0xff
80001bd4:	8fc20038 	lw	$2,56($30)
80001bd8:	a0430000 	sb	$3,0($2)
80001bdc:	1000004a 	beqz	$0,80001d08 <_Z6updateb17RoutingTableEntry+0xcc8>
80001be0:	00000000 	sll	$0,$0,0x0
80001be4:	3c028000 	lui	$2,0x8000
80001be8:	8fc30018 	lw	$3,24($30)
80001bec:	00031940 	sll	$3,$3,0x5
80001bf0:	244242f0 	addiu	$2,$2,17136
80001bf4:	00621021 	addu	$2,$3,$2
80001bf8:	8c420018 	lw	$2,24($2)
80001bfc:	afc20018 	sw	$2,24($30)
80001c00:	10000038 	beqz	$0,80001ce4 <_Z6updateb17RoutingTableEntry+0xca4>
80001c04:	00000000 	sll	$0,$0,0x0
80001c08:	3c038000 	lui	$3,0x8000
80001c0c:	8fc20018 	lw	$2,24($30)
80001c10:	246342f0 	addiu	$3,$3,17136
80001c14:	00021140 	sll	$2,$2,0x5
80001c18:	00621021 	addu	$2,$3,$2
80001c1c:	8c42001c 	lw	$2,28($2)
80001c20:	10400038 	beqz	$2,80001d04 <_Z6updateb17RoutingTableEntry+0xcc4>
80001c24:	00000000 	sll	$0,$0,0x0
80001c28:	8fc2001c 	lw	$2,28($30)
80001c2c:	2442fffe 	addiu	$2,$2,-2
80001c30:	8fc30024 	lw	$3,36($30)
80001c34:	14620024 	bne	$3,$2,80001cc8 <_Z6updateb17RoutingTableEntry+0xc88>
80001c38:	00000000 	sll	$0,$0,0x0
80001c3c:	3c038000 	lui	$3,0x8000
80001c40:	8fc20018 	lw	$2,24($30)
80001c44:	246342f0 	addiu	$3,$3,17136
80001c48:	00021140 	sll	$2,$2,0x5
80001c4c:	00621021 	addu	$2,$3,$2
80001c50:	8c43001c 	lw	$3,28($2)
80001c54:	3c028000 	lui	$2,0x8000
80001c58:	00031940 	sll	$3,$3,0x5
80001c5c:	244242f0 	addiu	$2,$2,17136
80001c60:	00621021 	addu	$2,$3,$2
80001c64:	ac400008 	sw	$0,8($2)
80001c68:	3c038000 	lui	$3,0x8000
80001c6c:	8fc20018 	lw	$2,24($30)
80001c70:	246342f0 	addiu	$3,$3,17136
80001c74:	00021140 	sll	$2,$2,0x5
80001c78:	00621021 	addu	$2,$3,$2
80001c7c:	ac40001c 	sw	$0,28($2)
80001c80:	8fc20018 	lw	$2,24($30)
80001c84:	000210c0 	sll	$2,$2,0x3
80001c88:	00401825 	or	$3,$2,$0
80001c8c:	3c02bd00 	lui	$2,0xbd00
80001c90:	00621021 	addu	$2,$3,$2
80001c94:	afc2003c 	sw	$2,60($30)
80001c98:	8fc2003c 	lw	$2,60($30)
80001c9c:	ac400000 	sw	$0,0($2)
80001ca0:	8fc30018 	lw	$3,24($30)
80001ca4:	3c02bf00 	lui	$2,0xbf00
80001ca8:	00621021 	addu	$2,$3,$2
80001cac:	afc20038 	sw	$2,56($30)
80001cb0:	8fc20058 	lw	$2,88($30)
80001cb4:	304300ff 	andi	$3,$2,0xff
80001cb8:	8fc20038 	lw	$2,56($30)
80001cbc:	a0430000 	sb	$3,0($2)
80001cc0:	10000011 	beqz	$0,80001d08 <_Z6updateb17RoutingTableEntry+0xcc8>
80001cc4:	00000000 	sll	$0,$0,0x0
80001cc8:	3c038000 	lui	$3,0x8000
80001ccc:	8fc20018 	lw	$2,24($30)
80001cd0:	246342f0 	addiu	$3,$3,17136
80001cd4:	00021140 	sll	$2,$2,0x5
80001cd8:	00621021 	addu	$2,$3,$2
80001cdc:	8c42001c 	lw	$2,28($2)
80001ce0:	afc20018 	sw	$2,24($30)
80001ce4:	8fc20024 	lw	$2,36($30)
80001ce8:	24420001 	addiu	$2,$2,1
80001cec:	afc20024 	sw	$2,36($30)
80001cf0:	1000ff7c 	beqz	$0,80001ae4 <_Z6updateb17RoutingTableEntry+0xaa4>
80001cf4:	00000000 	sll	$0,$0,0x0
80001cf8:	00000000 	sll	$0,$0,0x0
80001cfc:	10000002 	beqz	$0,80001d08 <_Z6updateb17RoutingTableEntry+0xcc8>
80001d00:	00000000 	sll	$0,$0,0x0
80001d04:	00000000 	sll	$0,$0,0x0
80001d08:	3c02bd00 	lui	$2,0xbd00
80001d0c:	afc20038 	sw	$2,56($30)
80001d10:	8fc20038 	lw	$2,56($30)
80001d14:	a0400000 	sb	$0,0($2)
80001d18:	8fc20038 	lw	$2,56($30)
80001d1c:	24420001 	addiu	$2,$2,1
80001d20:	a0400000 	sb	$0,0($2)
80001d24:	8fc20038 	lw	$2,56($30)
80001d28:	24420002 	addiu	$2,$2,2
80001d2c:	a0400000 	sb	$0,0($2)
80001d30:	8fc20038 	lw	$2,56($30)
80001d34:	24420003 	addiu	$2,$2,3
80001d38:	a0400000 	sb	$0,0($2)
80001d3c:	8fc20038 	lw	$2,56($30)
80001d40:	24420004 	addiu	$2,$2,4
80001d44:	a0400000 	sb	$0,0($2)
80001d48:	8fc20038 	lw	$2,56($30)
80001d4c:	24420005 	addiu	$2,$2,5
80001d50:	a0400000 	sb	$0,0($2)
80001d54:	8fc20038 	lw	$2,56($30)
80001d58:	24420006 	addiu	$2,$2,6
80001d5c:	a0400000 	sb	$0,0($2)
80001d60:	8fc20038 	lw	$2,56($30)
80001d64:	24420007 	addiu	$2,$2,7
80001d68:	a0400000 	sb	$0,0($2)
80001d6c:	00000000 	sll	$0,$0,0x0
80001d70:	03c0e825 	or	$29,$30,$0
80001d74:	8fbf004c 	lw	$31,76($29)
80001d78:	8fbe0048 	lw	$30,72($29)
80001d7c:	27bd0050 	addiu	$29,$29,80
80001d80:	03e00008 	jr	$31
80001d84:	00000000 	sll	$0,$0,0x0

80001d88 <_Z5queryj>:
80001d88:	27bdffd8 	addiu	$29,$29,-40
80001d8c:	afbe0024 	sw	$30,36($29)
80001d90:	03a0f025 	or	$30,$29,$0
80001d94:	afc40028 	sw	$4,40($30)
80001d98:	24020001 	addiu	$2,$0,1
80001d9c:	afc20008 	sw	$2,8($30)
80001da0:	3c028000 	lui	$2,0x8000
80001da4:	afc20010 	sw	$2,16($30)
80001da8:	8fc20028 	lw	$2,40($30)
80001dac:	00021e00 	sll	$3,$2,0x18
80001db0:	8fc20028 	lw	$2,40($30)
80001db4:	00021202 	srl	$2,$2,0x8
80001db8:	00022400 	sll	$4,$2,0x10
80001dbc:	3c0200ff 	lui	$2,0xff
80001dc0:	00821024 	and	$2,$4,$2
80001dc4:	00621821 	addu	$3,$3,$2
80001dc8:	8fc20028 	lw	$2,40($30)
80001dcc:	00021402 	srl	$2,$2,0x10
80001dd0:	00021200 	sll	$2,$2,0x8
80001dd4:	3042ffff 	andi	$2,$2,0xffff
80001dd8:	00621821 	addu	$3,$3,$2
80001ddc:	8fc20028 	lw	$2,40($30)
80001de0:	00021602 	srl	$2,$2,0x18
80001de4:	00621021 	addu	$2,$3,$2
80001de8:	afc20014 	sw	$2,20($30)
80001dec:	afc0000c 	sw	$0,12($30)
80001df0:	8fc2000c 	lw	$2,12($30)
80001df4:	28420020 	slti	$2,$2,32
80001df8:	10400032 	beqz	$2,80001ec4 <_Z5queryj+0x13c>
80001dfc:	00000000 	sll	$0,$0,0x0
80001e00:	8fc20010 	lw	$2,16($30)
80001e04:	00021842 	srl	$3,$2,0x1
80001e08:	8fc20014 	lw	$2,20($30)
80001e0c:	00621024 	and	$2,$3,$2
80001e10:	0002102b 	sltu	$2,$0,$2
80001e14:	304200ff 	andi	$2,$2,0xff
80001e18:	afc20018 	sw	$2,24($30)
80001e1c:	3c028000 	lui	$2,0x8000
80001e20:	8fc30008 	lw	$3,8($30)
80001e24:	00031940 	sll	$3,$3,0x5
80001e28:	244242f0 	addiu	$2,$2,17136
80001e2c:	00621021 	addu	$2,$3,$2
80001e30:	8c420008 	lw	$2,8($2)
80001e34:	10400004 	beqz	$2,80001e48 <_Z5queryj+0xc0>
80001e38:	00000000 	sll	$0,$0,0x0
80001e3c:	8fc30008 	lw	$3,8($30)
80001e40:	3c028001 	lui	$2,0x8001
80001e44:	ac43c090 	sw	$3,-16240($2)
80001e48:	8fc20018 	lw	$2,24($30)
80001e4c:	1440000d 	bnez	$2,80001e84 <_Z5queryj+0xfc>
80001e50:	00000000 	sll	$0,$0,0x0
80001e54:	3c028000 	lui	$2,0x8000
80001e58:	8fc30008 	lw	$3,8($30)
80001e5c:	00031940 	sll	$3,$3,0x5
80001e60:	244242f0 	addiu	$2,$2,17136
80001e64:	00621021 	addu	$2,$3,$2
80001e68:	8c420018 	lw	$2,24($2)
80001e6c:	afc20008 	sw	$2,8($30)
80001e70:	8fc20008 	lw	$2,8($30)
80001e74:	1440000d 	bnez	$2,80001eac <_Z5queryj+0x124>
80001e78:	00000000 	sll	$0,$0,0x0
80001e7c:	10000011 	beqz	$0,80001ec4 <_Z5queryj+0x13c>
80001e80:	00000000 	sll	$0,$0,0x0
80001e84:	3c038000 	lui	$3,0x8000
80001e88:	8fc20008 	lw	$2,8($30)
80001e8c:	246342f0 	addiu	$3,$3,17136
80001e90:	00021140 	sll	$2,$2,0x5
80001e94:	00621021 	addu	$2,$3,$2
80001e98:	8c42001c 	lw	$2,28($2)
80001e9c:	afc20008 	sw	$2,8($30)
80001ea0:	8fc20008 	lw	$2,8($30)
80001ea4:	10400006 	beqz	$2,80001ec0 <_Z5queryj+0x138>
80001ea8:	00000000 	sll	$0,$0,0x0
80001eac:	8fc2000c 	lw	$2,12($30)
80001eb0:	24420001 	addiu	$2,$2,1
80001eb4:	afc2000c 	sw	$2,12($30)
80001eb8:	1000ffcd 	beqz	$0,80001df0 <_Z5queryj+0x68>
80001ebc:	00000000 	sll	$0,$0,0x0
80001ec0:	00000000 	sll	$0,$0,0x0
80001ec4:	24020001 	addiu	$2,$0,1
80001ec8:	03c0e825 	or	$29,$30,$0
80001ecc:	8fbe0024 	lw	$30,36($29)
80001ed0:	27bd0028 	addiu	$29,$29,40
80001ed4:	03e00008 	jr	$31
80001ed8:	00000000 	sll	$0,$0,0x0

80001edc <_Z11disassemblePKhjP9RipPacket>:
80001edc:	27bdffd8 	addiu	$29,$29,-40
80001ee0:	afbe0024 	sw	$30,36($29)
80001ee4:	03a0f025 	or	$30,$29,$0
80001ee8:	afc40028 	sw	$4,40($30)
80001eec:	afc5002c 	sw	$5,44($30)
80001ef0:	afc60030 	sw	$6,48($30)
80001ef4:	8fc20030 	lw	$2,48($30)
80001ef8:	ac400000 	sw	$0,0($2)
80001efc:	8fc20028 	lw	$2,40($30)
80001f00:	2442001c 	addiu	$2,$2,28
80001f04:	90430000 	lbu	$3,0($2)
80001f08:	8fc20030 	lw	$2,48($30)
80001f0c:	a0430004 	sb	$3,4($2)
80001f10:	8fc20028 	lw	$2,40($30)
80001f14:	2442001d 	addiu	$2,$2,29
80001f18:	90430000 	lbu	$3,0($2)
80001f1c:	24020002 	addiu	$2,$0,2
80001f20:	10620004 	beq	$3,$2,80001f34 <_Z11disassemblePKhjP9RipPacket+0x58>
80001f24:	00000000 	sll	$0,$0,0x0
80001f28:	00001025 	or	$2,$0,$0
80001f2c:	100000c8 	beqz	$0,80002250 <_Z11disassemblePKhjP9RipPacket+0x374>
80001f30:	00000000 	sll	$0,$0,0x0
80001f34:	8fc20030 	lw	$2,48($30)
80001f38:	90420004 	lbu	$2,4($2)
80001f3c:	10400006 	beqz	$2,80001f58 <_Z11disassemblePKhjP9RipPacket+0x7c>
80001f40:	00000000 	sll	$0,$0,0x0
80001f44:	8fc20030 	lw	$2,48($30)
80001f48:	90420004 	lbu	$2,4($2)
80001f4c:	2c420003 	sltiu	$2,$2,3
80001f50:	14400004 	bnez	$2,80001f64 <_Z11disassemblePKhjP9RipPacket+0x88>
80001f54:	00000000 	sll	$0,$0,0x0
80001f58:	00001025 	or	$2,$0,$0
80001f5c:	100000bc 	beqz	$0,80002250 <_Z11disassemblePKhjP9RipPacket+0x374>
80001f60:	00000000 	sll	$0,$0,0x0
80001f64:	afc00008 	sw	$0,8($30)
80001f68:	afc0000c 	sw	$0,12($30)
80001f6c:	8fc20008 	lw	$2,8($30)
80001f70:	24420034 	addiu	$2,$2,52
80001f74:	00401825 	or	$3,$2,$0
80001f78:	8fc2002c 	lw	$2,44($30)
80001f7c:	0043102b 	sltu	$2,$2,$3
80001f80:	144000a5 	bnez	$2,80002218 <_Z11disassemblePKhjP9RipPacket+0x33c>
80001f84:	00000000 	sll	$0,$0,0x0
80001f88:	8fc20030 	lw	$2,48($30)
80001f8c:	8c420000 	lw	$2,0($2)
80001f90:	24430001 	addiu	$3,$2,1
80001f94:	8fc20030 	lw	$2,48($30)
80001f98:	ac430000 	sw	$3,0($2)
80001f9c:	8fc20008 	lw	$2,8($30)
80001fa0:	24420027 	addiu	$2,$2,39
80001fa4:	afc20010 	sw	$2,16($30)
80001fa8:	8fc20008 	lw	$2,8($30)
80001fac:	24420024 	addiu	$2,$2,36
80001fb0:	8fc30010 	lw	$3,16($30)
80001fb4:	0062102a 	slt	$2,$3,$2
80001fb8:	14400016 	bnez	$2,80002014 <_Z11disassemblePKhjP9RipPacket+0x138>
80001fbc:	00000000 	sll	$0,$0,0x0
80001fc0:	8fc30030 	lw	$3,48($30)
80001fc4:	8fc2000c 	lw	$2,12($30)
80001fc8:	00021100 	sll	$2,$2,0x4
80001fcc:	00621021 	addu	$2,$3,$2
80001fd0:	8c420008 	lw	$2,8($2)
80001fd4:	00021200 	sll	$2,$2,0x8
80001fd8:	8fc30010 	lw	$3,16($30)
80001fdc:	8fc40028 	lw	$4,40($30)
80001fe0:	00831821 	addu	$3,$4,$3
80001fe4:	90630000 	lbu	$3,0($3)
80001fe8:	00431821 	addu	$3,$2,$3
80001fec:	8fc40030 	lw	$4,48($30)
80001ff0:	8fc2000c 	lw	$2,12($30)
80001ff4:	00021100 	sll	$2,$2,0x4
80001ff8:	00821021 	addu	$2,$4,$2
80001ffc:	ac430008 	sw	$3,8($2)
80002000:	8fc20010 	lw	$2,16($30)
80002004:	2442ffff 	addiu	$2,$2,-1
80002008:	afc20010 	sw	$2,16($30)
8000200c:	1000ffe6 	beqz	$0,80001fa8 <_Z11disassemblePKhjP9RipPacket+0xcc>
80002010:	00000000 	sll	$0,$0,0x0
80002014:	8fc20008 	lw	$2,8($30)
80002018:	2442002b 	addiu	$2,$2,43
8000201c:	afc20014 	sw	$2,20($30)
80002020:	8fc20008 	lw	$2,8($30)
80002024:	24420028 	addiu	$2,$2,40
80002028:	8fc30014 	lw	$3,20($30)
8000202c:	0062102a 	slt	$2,$3,$2
80002030:	14400026 	bnez	$2,800020cc <_Z11disassemblePKhjP9RipPacket+0x1f0>
80002034:	00000000 	sll	$0,$0,0x0
80002038:	8fc30030 	lw	$3,48($30)
8000203c:	8fc2000c 	lw	$2,12($30)
80002040:	00021100 	sll	$2,$2,0x4
80002044:	00621021 	addu	$2,$3,$2
80002048:	8c42000c 	lw	$2,12($2)
8000204c:	00021200 	sll	$2,$2,0x8
80002050:	8fc30014 	lw	$3,20($30)
80002054:	8fc40028 	lw	$4,40($30)
80002058:	00831821 	addu	$3,$4,$3
8000205c:	90630000 	lbu	$3,0($3)
80002060:	00431821 	addu	$3,$2,$3
80002064:	8fc40030 	lw	$4,48($30)
80002068:	8fc2000c 	lw	$2,12($30)
8000206c:	00021100 	sll	$2,$2,0x4
80002070:	00821021 	addu	$2,$4,$2
80002074:	ac43000c 	sw	$3,12($2)
80002078:	8fc20014 	lw	$2,20($30)
8000207c:	8fc30028 	lw	$3,40($30)
80002080:	00621021 	addu	$2,$3,$2
80002084:	90420000 	lbu	$2,0($2)
80002088:	1040000b 	beqz	$2,800020b8 <_Z11disassemblePKhjP9RipPacket+0x1dc>
8000208c:	00000000 	sll	$0,$0,0x0
80002090:	8fc20014 	lw	$2,20($30)
80002094:	8fc30028 	lw	$3,40($30)
80002098:	00621021 	addu	$2,$3,$2
8000209c:	90430000 	lbu	$3,0($2)
800020a0:	240200ff 	addiu	$2,$0,255
800020a4:	10620004 	beq	$3,$2,800020b8 <_Z11disassemblePKhjP9RipPacket+0x1dc>
800020a8:	00000000 	sll	$0,$0,0x0
800020ac:	00001025 	or	$2,$0,$0
800020b0:	10000067 	beqz	$0,80002250 <_Z11disassemblePKhjP9RipPacket+0x374>
800020b4:	00000000 	sll	$0,$0,0x0
800020b8:	8fc20014 	lw	$2,20($30)
800020bc:	2442ffff 	addiu	$2,$2,-1
800020c0:	afc20014 	sw	$2,20($30)
800020c4:	1000ffd6 	beqz	$0,80002020 <_Z11disassemblePKhjP9RipPacket+0x144>
800020c8:	00000000 	sll	$0,$0,0x0
800020cc:	8fc20008 	lw	$2,8($30)
800020d0:	2442002f 	addiu	$2,$2,47
800020d4:	afc20018 	sw	$2,24($30)
800020d8:	8fc20008 	lw	$2,8($30)
800020dc:	2442002c 	addiu	$2,$2,44
800020e0:	8fc30018 	lw	$3,24($30)
800020e4:	0062102a 	slt	$2,$3,$2
800020e8:	14400018 	bnez	$2,8000214c <_Z11disassemblePKhjP9RipPacket+0x270>
800020ec:	00000000 	sll	$0,$0,0x0
800020f0:	8fc30030 	lw	$3,48($30)
800020f4:	8fc2000c 	lw	$2,12($30)
800020f8:	24420001 	addiu	$2,$2,1
800020fc:	00021100 	sll	$2,$2,0x4
80002100:	00621021 	addu	$2,$3,$2
80002104:	8c420000 	lw	$2,0($2)
80002108:	00021200 	sll	$2,$2,0x8
8000210c:	8fc30018 	lw	$3,24($30)
80002110:	8fc40028 	lw	$4,40($30)
80002114:	00831821 	addu	$3,$4,$3
80002118:	90630000 	lbu	$3,0($3)
8000211c:	00431821 	addu	$3,$2,$3
80002120:	8fc40030 	lw	$4,48($30)
80002124:	8fc2000c 	lw	$2,12($30)
80002128:	24420001 	addiu	$2,$2,1
8000212c:	00021100 	sll	$2,$2,0x4
80002130:	00821021 	addu	$2,$4,$2
80002134:	ac430000 	sw	$3,0($2)
80002138:	8fc20018 	lw	$2,24($30)
8000213c:	2442ffff 	addiu	$2,$2,-1
80002140:	afc20018 	sw	$2,24($30)
80002144:	1000ffe4 	beqz	$0,800020d8 <_Z11disassemblePKhjP9RipPacket+0x1fc>
80002148:	00000000 	sll	$0,$0,0x0
8000214c:	8fc20008 	lw	$2,8($30)
80002150:	24420033 	addiu	$2,$2,51
80002154:	00401825 	or	$3,$2,$0
80002158:	8fc20028 	lw	$2,40($30)
8000215c:	00431021 	addu	$2,$2,$3
80002160:	90420000 	lbu	$2,0($2)
80002164:	14400004 	bnez	$2,80002178 <_Z11disassemblePKhjP9RipPacket+0x29c>
80002168:	00000000 	sll	$0,$0,0x0
8000216c:	00001025 	or	$2,$0,$0
80002170:	10000037 	beqz	$0,80002250 <_Z11disassemblePKhjP9RipPacket+0x374>
80002174:	00000000 	sll	$0,$0,0x0
80002178:	8fc20008 	lw	$2,8($30)
8000217c:	24420033 	addiu	$2,$2,51
80002180:	afc2001c 	sw	$2,28($30)
80002184:	8fc20008 	lw	$2,8($30)
80002188:	24420030 	addiu	$2,$2,48
8000218c:	8fc3001c 	lw	$3,28($30)
80002190:	0062102a 	slt	$2,$3,$2
80002194:	14400018 	bnez	$2,800021f8 <_Z11disassemblePKhjP9RipPacket+0x31c>
80002198:	00000000 	sll	$0,$0,0x0
8000219c:	8fc30030 	lw	$3,48($30)
800021a0:	8fc2000c 	lw	$2,12($30)
800021a4:	24420001 	addiu	$2,$2,1
800021a8:	00021100 	sll	$2,$2,0x4
800021ac:	00621021 	addu	$2,$3,$2
800021b0:	8c420004 	lw	$2,4($2)
800021b4:	00021200 	sll	$2,$2,0x8
800021b8:	8fc3001c 	lw	$3,28($30)
800021bc:	8fc40028 	lw	$4,40($30)
800021c0:	00831821 	addu	$3,$4,$3
800021c4:	90630000 	lbu	$3,0($3)
800021c8:	00431821 	addu	$3,$2,$3
800021cc:	8fc40030 	lw	$4,48($30)
800021d0:	8fc2000c 	lw	$2,12($30)
800021d4:	24420001 	addiu	$2,$2,1
800021d8:	00021100 	sll	$2,$2,0x4
800021dc:	00821021 	addu	$2,$4,$2
800021e0:	ac430004 	sw	$3,4($2)
800021e4:	8fc2001c 	lw	$2,28($30)
800021e8:	2442ffff 	addiu	$2,$2,-1
800021ec:	afc2001c 	sw	$2,28($30)
800021f0:	1000ffe4 	beqz	$0,80002184 <_Z11disassemblePKhjP9RipPacket+0x2a8>
800021f4:	00000000 	sll	$0,$0,0x0
800021f8:	8fc2000c 	lw	$2,12($30)
800021fc:	24420001 	addiu	$2,$2,1
80002200:	afc2000c 	sw	$2,12($30)
80002204:	8fc20008 	lw	$2,8($30)
80002208:	24420014 	addiu	$2,$2,20
8000220c:	afc20008 	sw	$2,8($30)
80002210:	1000ff56 	beqz	$0,80001f6c <_Z11disassemblePKhjP9RipPacket+0x90>
80002214:	00000000 	sll	$0,$0,0x0
80002218:	8fc2002c 	lw	$2,44($30)
8000221c:	2444ffcc 	addiu	$4,$2,-52
80002220:	3c02cccc 	lui	$2,0xcccc
80002224:	3442cccd 	ori	$2,$2,0xcccd
80002228:	00820019 	multu	$4,$2
8000222c:	00001010 	mfhi	$2
80002230:	00021902 	srl	$3,$2,0x4
80002234:	00601025 	or	$2,$3,$0
80002238:	00021080 	sll	$2,$2,0x2
8000223c:	00431021 	addu	$2,$2,$3
80002240:	00021080 	sll	$2,$2,0x2
80002244:	00821823 	subu	$3,$4,$2
80002248:	2c620001 	sltiu	$2,$3,1
8000224c:	304200ff 	andi	$2,$2,0xff
80002250:	03c0e825 	or	$29,$30,$0
80002254:	8fbe0024 	lw	$30,36($29)
80002258:	27bd0028 	addiu	$29,$29,40
8000225c:	03e00008 	jr	$31
80002260:	00000000 	sll	$0,$0,0x0

80002264 <_Z8assemblePK9RipPacketPh>:
80002264:	27bdffe0 	addiu	$29,$29,-32
80002268:	afbe001c 	sw	$30,28($29)
8000226c:	03a0f025 	or	$30,$29,$0
80002270:	afc40020 	sw	$4,32($30)
80002274:	afc50024 	sw	$5,36($30)
80002278:	8fc20020 	lw	$2,32($30)
8000227c:	90430004 	lbu	$3,4($2)
80002280:	8fc20024 	lw	$2,36($30)
80002284:	a0430000 	sb	$3,0($2)
80002288:	8fc20024 	lw	$2,36($30)
8000228c:	24420001 	addiu	$2,$2,1
80002290:	24030002 	addiu	$3,$0,2
80002294:	a0430000 	sb	$3,0($2)
80002298:	8fc20024 	lw	$2,36($30)
8000229c:	24420002 	addiu	$2,$2,2
800022a0:	a0400000 	sb	$0,0($2)
800022a4:	8fc20024 	lw	$2,36($30)
800022a8:	24420003 	addiu	$2,$2,3
800022ac:	a0400000 	sb	$0,0($2)
800022b0:	afc00008 	sw	$0,8($30)
800022b4:	afc0000c 	sw	$0,12($30)
800022b8:	8fc20020 	lw	$2,32($30)
800022bc:	8c420000 	lw	$2,0($2)
800022c0:	00401825 	or	$3,$2,$0
800022c4:	8fc20008 	lw	$2,8($30)
800022c8:	0043102a 	slt	$2,$2,$3
800022cc:	104000f1 	beqz	$2,80002694 <_Z8assemblePK9RipPacketPh+0x430>
800022d0:	00000000 	sll	$0,$0,0x0
800022d4:	8fc2000c 	lw	$2,12($30)
800022d8:	24420004 	addiu	$2,$2,4
800022dc:	00401825 	or	$3,$2,$0
800022e0:	8fc20024 	lw	$2,36($30)
800022e4:	00431021 	addu	$2,$2,$3
800022e8:	a0400000 	sb	$0,0($2)
800022ec:	8fc20020 	lw	$2,32($30)
800022f0:	90420004 	lbu	$2,4($2)
800022f4:	2442ffff 	addiu	$2,$2,-1
800022f8:	304300ff 	andi	$3,$2,0xff
800022fc:	8fc2000c 	lw	$2,12($30)
80002300:	24420005 	addiu	$2,$2,5
80002304:	00402025 	or	$4,$2,$0
80002308:	8fc20024 	lw	$2,36($30)
8000230c:	00441021 	addu	$2,$2,$4
80002310:	00031840 	sll	$3,$3,0x1
80002314:	306300ff 	andi	$3,$3,0xff
80002318:	a0430000 	sb	$3,0($2)
8000231c:	8fc2000c 	lw	$2,12($30)
80002320:	24420006 	addiu	$2,$2,6
80002324:	00401825 	or	$3,$2,$0
80002328:	8fc20024 	lw	$2,36($30)
8000232c:	00431021 	addu	$2,$2,$3
80002330:	a0400000 	sb	$0,0($2)
80002334:	8fc2000c 	lw	$2,12($30)
80002338:	24420007 	addiu	$2,$2,7
8000233c:	00401825 	or	$3,$2,$0
80002340:	8fc20024 	lw	$2,36($30)
80002344:	00431021 	addu	$2,$2,$3
80002348:	a0400000 	sb	$0,0($2)
8000234c:	8fc30020 	lw	$3,32($30)
80002350:	8fc20008 	lw	$2,8($30)
80002354:	00021100 	sll	$2,$2,0x4
80002358:	00621021 	addu	$2,$3,$2
8000235c:	8c420008 	lw	$2,8($2)
80002360:	afc20010 	sw	$2,16($30)
80002364:	8fc2000c 	lw	$2,12($30)
80002368:	24420008 	addiu	$2,$2,8
8000236c:	00401825 	or	$3,$2,$0
80002370:	8fc20024 	lw	$2,36($30)
80002374:	00431021 	addu	$2,$2,$3
80002378:	8fc30010 	lw	$3,16($30)
8000237c:	306300ff 	andi	$3,$3,0xff
80002380:	a0430000 	sb	$3,0($2)
80002384:	8fc20010 	lw	$2,16($30)
80002388:	00021202 	srl	$2,$2,0x8
8000238c:	afc20010 	sw	$2,16($30)
80002390:	8fc2000c 	lw	$2,12($30)
80002394:	24420009 	addiu	$2,$2,9
80002398:	00401825 	or	$3,$2,$0
8000239c:	8fc20024 	lw	$2,36($30)
800023a0:	00431021 	addu	$2,$2,$3
800023a4:	8fc30010 	lw	$3,16($30)
800023a8:	306300ff 	andi	$3,$3,0xff
800023ac:	a0430000 	sb	$3,0($2)
800023b0:	8fc20010 	lw	$2,16($30)
800023b4:	00021202 	srl	$2,$2,0x8
800023b8:	afc20010 	sw	$2,16($30)
800023bc:	8fc2000c 	lw	$2,12($30)
800023c0:	2442000a 	addiu	$2,$2,10
800023c4:	00401825 	or	$3,$2,$0
800023c8:	8fc20024 	lw	$2,36($30)
800023cc:	00431021 	addu	$2,$2,$3
800023d0:	8fc30010 	lw	$3,16($30)
800023d4:	306300ff 	andi	$3,$3,0xff
800023d8:	a0430000 	sb	$3,0($2)
800023dc:	8fc20010 	lw	$2,16($30)
800023e0:	00021202 	srl	$2,$2,0x8
800023e4:	afc20010 	sw	$2,16($30)
800023e8:	8fc2000c 	lw	$2,12($30)
800023ec:	2442000b 	addiu	$2,$2,11
800023f0:	00401825 	or	$3,$2,$0
800023f4:	8fc20024 	lw	$2,36($30)
800023f8:	00431021 	addu	$2,$2,$3
800023fc:	8fc30010 	lw	$3,16($30)
80002400:	306300ff 	andi	$3,$3,0xff
80002404:	a0430000 	sb	$3,0($2)
80002408:	8fc20010 	lw	$2,16($30)
8000240c:	00021202 	srl	$2,$2,0x8
80002410:	afc20010 	sw	$2,16($30)
80002414:	8fc30020 	lw	$3,32($30)
80002418:	8fc20008 	lw	$2,8($30)
8000241c:	00021100 	sll	$2,$2,0x4
80002420:	00621021 	addu	$2,$3,$2
80002424:	8c42000c 	lw	$2,12($2)
80002428:	afc20010 	sw	$2,16($30)
8000242c:	8fc2000c 	lw	$2,12($30)
80002430:	2442000c 	addiu	$2,$2,12
80002434:	00401825 	or	$3,$2,$0
80002438:	8fc20024 	lw	$2,36($30)
8000243c:	00431021 	addu	$2,$2,$3
80002440:	8fc30010 	lw	$3,16($30)
80002444:	306300ff 	andi	$3,$3,0xff
80002448:	a0430000 	sb	$3,0($2)
8000244c:	8fc20010 	lw	$2,16($30)
80002450:	00021202 	srl	$2,$2,0x8
80002454:	afc20010 	sw	$2,16($30)
80002458:	8fc2000c 	lw	$2,12($30)
8000245c:	2442000d 	addiu	$2,$2,13
80002460:	00401825 	or	$3,$2,$0
80002464:	8fc20024 	lw	$2,36($30)
80002468:	00431021 	addu	$2,$2,$3
8000246c:	8fc30010 	lw	$3,16($30)
80002470:	306300ff 	andi	$3,$3,0xff
80002474:	a0430000 	sb	$3,0($2)
80002478:	8fc20010 	lw	$2,16($30)
8000247c:	00021202 	srl	$2,$2,0x8
80002480:	afc20010 	sw	$2,16($30)
80002484:	8fc2000c 	lw	$2,12($30)
80002488:	2442000e 	addiu	$2,$2,14
8000248c:	00401825 	or	$3,$2,$0
80002490:	8fc20024 	lw	$2,36($30)
80002494:	00431021 	addu	$2,$2,$3
80002498:	8fc30010 	lw	$3,16($30)
8000249c:	306300ff 	andi	$3,$3,0xff
800024a0:	a0430000 	sb	$3,0($2)
800024a4:	8fc20010 	lw	$2,16($30)
800024a8:	00021202 	srl	$2,$2,0x8
800024ac:	afc20010 	sw	$2,16($30)
800024b0:	8fc2000c 	lw	$2,12($30)
800024b4:	2442000f 	addiu	$2,$2,15
800024b8:	00401825 	or	$3,$2,$0
800024bc:	8fc20024 	lw	$2,36($30)
800024c0:	00431021 	addu	$2,$2,$3
800024c4:	8fc30010 	lw	$3,16($30)
800024c8:	306300ff 	andi	$3,$3,0xff
800024cc:	a0430000 	sb	$3,0($2)
800024d0:	8fc20010 	lw	$2,16($30)
800024d4:	00021202 	srl	$2,$2,0x8
800024d8:	afc20010 	sw	$2,16($30)
800024dc:	8fc30020 	lw	$3,32($30)
800024e0:	8fc20008 	lw	$2,8($30)
800024e4:	24420001 	addiu	$2,$2,1
800024e8:	00021100 	sll	$2,$2,0x4
800024ec:	00621021 	addu	$2,$3,$2
800024f0:	8c420000 	lw	$2,0($2)
800024f4:	afc20010 	sw	$2,16($30)
800024f8:	8fc2000c 	lw	$2,12($30)
800024fc:	24420010 	addiu	$2,$2,16
80002500:	00401825 	or	$3,$2,$0
80002504:	8fc20024 	lw	$2,36($30)
80002508:	00431021 	addu	$2,$2,$3
8000250c:	8fc30010 	lw	$3,16($30)
80002510:	306300ff 	andi	$3,$3,0xff
80002514:	a0430000 	sb	$3,0($2)
80002518:	8fc20010 	lw	$2,16($30)
8000251c:	00021202 	srl	$2,$2,0x8
80002520:	afc20010 	sw	$2,16($30)
80002524:	8fc2000c 	lw	$2,12($30)
80002528:	24420011 	addiu	$2,$2,17
8000252c:	00401825 	or	$3,$2,$0
80002530:	8fc20024 	lw	$2,36($30)
80002534:	00431021 	addu	$2,$2,$3
80002538:	8fc30010 	lw	$3,16($30)
8000253c:	306300ff 	andi	$3,$3,0xff
80002540:	a0430000 	sb	$3,0($2)
80002544:	8fc20010 	lw	$2,16($30)
80002548:	00021202 	srl	$2,$2,0x8
8000254c:	afc20010 	sw	$2,16($30)
80002550:	8fc2000c 	lw	$2,12($30)
80002554:	24420012 	addiu	$2,$2,18
80002558:	00401825 	or	$3,$2,$0
8000255c:	8fc20024 	lw	$2,36($30)
80002560:	00431021 	addu	$2,$2,$3
80002564:	8fc30010 	lw	$3,16($30)
80002568:	306300ff 	andi	$3,$3,0xff
8000256c:	a0430000 	sb	$3,0($2)
80002570:	8fc20010 	lw	$2,16($30)
80002574:	00021202 	srl	$2,$2,0x8
80002578:	afc20010 	sw	$2,16($30)
8000257c:	8fc2000c 	lw	$2,12($30)
80002580:	24420013 	addiu	$2,$2,19
80002584:	00401825 	or	$3,$2,$0
80002588:	8fc20024 	lw	$2,36($30)
8000258c:	00431021 	addu	$2,$2,$3
80002590:	8fc30010 	lw	$3,16($30)
80002594:	306300ff 	andi	$3,$3,0xff
80002598:	a0430000 	sb	$3,0($2)
8000259c:	8fc20010 	lw	$2,16($30)
800025a0:	00021202 	srl	$2,$2,0x8
800025a4:	afc20010 	sw	$2,16($30)
800025a8:	8fc30020 	lw	$3,32($30)
800025ac:	8fc20008 	lw	$2,8($30)
800025b0:	24420001 	addiu	$2,$2,1
800025b4:	00021100 	sll	$2,$2,0x4
800025b8:	00621021 	addu	$2,$3,$2
800025bc:	8c420004 	lw	$2,4($2)
800025c0:	afc20010 	sw	$2,16($30)
800025c4:	8fc2000c 	lw	$2,12($30)
800025c8:	24420017 	addiu	$2,$2,23
800025cc:	00401825 	or	$3,$2,$0
800025d0:	8fc20024 	lw	$2,36($30)
800025d4:	00431021 	addu	$2,$2,$3
800025d8:	8fc30010 	lw	$3,16($30)
800025dc:	306300ff 	andi	$3,$3,0xff
800025e0:	a0430000 	sb	$3,0($2)
800025e4:	8fc20010 	lw	$2,16($30)
800025e8:	00021202 	srl	$2,$2,0x8
800025ec:	afc20010 	sw	$2,16($30)
800025f0:	8fc2000c 	lw	$2,12($30)
800025f4:	24420016 	addiu	$2,$2,22
800025f8:	00401825 	or	$3,$2,$0
800025fc:	8fc20024 	lw	$2,36($30)
80002600:	00431021 	addu	$2,$2,$3
80002604:	8fc30010 	lw	$3,16($30)
80002608:	306300ff 	andi	$3,$3,0xff
8000260c:	a0430000 	sb	$3,0($2)
80002610:	8fc20010 	lw	$2,16($30)
80002614:	00021202 	srl	$2,$2,0x8
80002618:	afc20010 	sw	$2,16($30)
8000261c:	8fc2000c 	lw	$2,12($30)
80002620:	24420015 	addiu	$2,$2,21
80002624:	00401825 	or	$3,$2,$0
80002628:	8fc20024 	lw	$2,36($30)
8000262c:	00431021 	addu	$2,$2,$3
80002630:	8fc30010 	lw	$3,16($30)
80002634:	306300ff 	andi	$3,$3,0xff
80002638:	a0430000 	sb	$3,0($2)
8000263c:	8fc20010 	lw	$2,16($30)
80002640:	00021202 	srl	$2,$2,0x8
80002644:	afc20010 	sw	$2,16($30)
80002648:	8fc2000c 	lw	$2,12($30)
8000264c:	24420014 	addiu	$2,$2,20
80002650:	00401825 	or	$3,$2,$0
80002654:	8fc20024 	lw	$2,36($30)
80002658:	00431021 	addu	$2,$2,$3
8000265c:	8fc30010 	lw	$3,16($30)
80002660:	306300ff 	andi	$3,$3,0xff
80002664:	a0430000 	sb	$3,0($2)
80002668:	8fc20010 	lw	$2,16($30)
8000266c:	00021202 	srl	$2,$2,0x8
80002670:	afc20010 	sw	$2,16($30)
80002674:	8fc20008 	lw	$2,8($30)
80002678:	24420001 	addiu	$2,$2,1
8000267c:	afc20008 	sw	$2,8($30)
80002680:	8fc2000c 	lw	$2,12($30)
80002684:	24420014 	addiu	$2,$2,20
80002688:	afc2000c 	sw	$2,12($30)
8000268c:	1000ff0a 	beqz	$0,800022b8 <_Z8assemblePK9RipPacketPh+0x54>
80002690:	00000000 	sll	$0,$0,0x0
80002694:	8fc20020 	lw	$2,32($30)
80002698:	8c430000 	lw	$3,0($2)
8000269c:	00601025 	or	$2,$3,$0
800026a0:	00021080 	sll	$2,$2,0x2
800026a4:	00431021 	addu	$2,$2,$3
800026a8:	00021080 	sll	$2,$2,0x2
800026ac:	24420004 	addiu	$2,$2,4
800026b0:	03c0e825 	or	$29,$30,$0
800026b4:	8fbe001c 	lw	$30,28($29)
800026b8:	27bd0020 	addiu	$29,$29,32
800026bc:	03e00008 	jr	$31
800026c0:	00000000 	sll	$0,$0,0x0

800026c4 <main>:
800026c4:	27bdfbc0 	addiu	$29,$29,-1088
800026c8:	afbf043c 	sw	$31,1084($29)
800026cc:	afbe0438 	sw	$30,1080($29)
800026d0:	03a0f025 	or	$30,$29,$0
800026d4:	afc40440 	sw	$4,1088($30)
800026d8:	afc50444 	sw	$5,1092($30)
800026dc:	3c028000 	lui	$2,0x8000
800026e0:	24443f40 	addiu	$4,$2,16192
800026e4:	0c000111 	jal	80000444 <_Z9putstringPKc>
800026e8:	00000000 	sll	$0,$0,0x0
800026ec:	3c02bb00 	lui	$2,0xbb00
800026f0:	344201ff 	ori	$2,$2,0x1ff
800026f4:	afc20070 	sw	$2,112($30)
800026f8:	8fc20070 	lw	$2,112($30)
800026fc:	a0400000 	sb	$0,0($2)
80002700:	3c02bc00 	lui	$2,0xbc00
80002704:	344201ff 	ori	$2,$2,0x1ff
80002708:	afc20074 	sw	$2,116($30)
8000270c:	8fc20074 	lw	$2,116($30)
80002710:	a0400000 	sb	$0,0($2)
80002714:	24020001 	addiu	$2,$0,1
80002718:	afc20078 	sw	$2,120($30)
8000271c:	3c028000 	lui	$2,0x8000
80002720:	24030001 	addiu	$3,$0,1
80002724:	ac434298 	sw	$3,17048($2)
80002728:	3c028000 	lui	$2,0x8000
8000272c:	8c434298 	lw	$3,17048($2)
80002730:	3c028000 	lui	$2,0x8000
80002734:	00031940 	sll	$3,$3,0x5
80002738:	244242f0 	addiu	$2,$2,17136
8000273c:	00621021 	addu	$2,$3,$2
80002740:	ac400018 	sw	$0,24($2)
80002744:	3c028000 	lui	$2,0x8000
80002748:	8c424298 	lw	$2,17048($2)
8000274c:	3c038000 	lui	$3,0x8000
80002750:	246342f0 	addiu	$3,$3,17136
80002754:	00021140 	sll	$2,$2,0x5
80002758:	00621021 	addu	$2,$3,$2
8000275c:	ac40001c 	sw	$0,28($2)
80002760:	3c028000 	lui	$2,0x8000
80002764:	8c434298 	lw	$3,17048($2)
80002768:	3c028000 	lui	$2,0x8000
8000276c:	00031940 	sll	$3,$3,0x5
80002770:	244242f0 	addiu	$2,$2,17136
80002774:	00621021 	addu	$2,$3,$2
80002778:	ac400000 	sw	$0,0($2)
8000277c:	3c028000 	lui	$2,0x8000
80002780:	8c434298 	lw	$3,17048($2)
80002784:	3c028000 	lui	$2,0x8000
80002788:	00031940 	sll	$3,$3,0x5
8000278c:	244242f0 	addiu	$2,$2,17136
80002790:	00621021 	addu	$2,$3,$2
80002794:	ac400010 	sw	$0,16($2)
80002798:	3c028000 	lui	$2,0x8000
8000279c:	8c424298 	lw	$2,17048($2)
800027a0:	3c038000 	lui	$3,0x8000
800027a4:	246342f0 	addiu	$3,$3,17136
800027a8:	00021140 	sll	$2,$2,0x5
800027ac:	00621021 	addu	$2,$3,$2
800027b0:	ac400004 	sw	$0,4($2)
800027b4:	3c028000 	lui	$2,0x8000
800027b8:	8c424298 	lw	$2,17048($2)
800027bc:	3c038000 	lui	$3,0x8000
800027c0:	246342f0 	addiu	$3,$3,17136
800027c4:	00021140 	sll	$2,$2,0x5
800027c8:	00621021 	addu	$2,$3,$2
800027cc:	ac40000c 	sw	$0,12($2)
800027d0:	3c028000 	lui	$2,0x8000
800027d4:	8c434298 	lw	$3,17048($2)
800027d8:	3c028000 	lui	$2,0x8000
800027dc:	00031940 	sll	$3,$3,0x5
800027e0:	244242f0 	addiu	$2,$2,17136
800027e4:	00621021 	addu	$2,$3,$2
800027e8:	ac400008 	sw	$0,8($2)
800027ec:	3c028000 	lui	$2,0x8000
800027f0:	8c424298 	lw	$2,17048($2)
800027f4:	3c038000 	lui	$3,0x8000
800027f8:	246342f0 	addiu	$3,$3,17136
800027fc:	00021140 	sll	$2,$2,0x5
80002800:	00621021 	addu	$2,$3,$2
80002804:	ac400014 	sw	$0,20($2)
80002808:	3c028000 	lui	$2,0x8000
8000280c:	24443f50 	addiu	$4,$2,16208
80002810:	0c000111 	jal	80000444 <_Z9putstringPKc>
80002814:	00000000 	sll	$0,$0,0x0
80002818:	3c020001 	lui	$2,0x1
8000281c:	3442000a 	ori	$2,$2,0xa
80002820:	afc200a0 	sw	$2,160($30)
80002824:	3c0200ff 	lui	$2,0xff
80002828:	3442ffff 	ori	$2,$2,0xffff
8000282c:	afc200b0 	sw	$2,176($30)
80002830:	24020001 	addiu	$2,$0,1
80002834:	afc200a4 	sw	$2,164($30)
80002838:	3c020201 	lui	$2,0x201
8000283c:	3442000a 	ori	$2,$2,0xa
80002840:	afc200a8 	sw	$2,168($30)
80002844:	24020001 	addiu	$2,$0,1
80002848:	afc200ac 	sw	$2,172($30)
8000284c:	8fc600ac 	lw	$6,172($30)
80002850:	8fc500b0 	lw	$5,176($30)
80002854:	8fc400b4 	lw	$4,180($30)
80002858:	8fc300b8 	lw	$3,184($30)
8000285c:	8fc200bc 	lw	$2,188($30)
80002860:	afa60010 	sw	$6,16($29)
80002864:	afa50014 	sw	$5,20($29)
80002868:	afa40018 	sw	$4,24($29)
8000286c:	afa3001c 	sw	$3,28($29)
80002870:	afa20020 	sw	$2,32($29)
80002874:	8fc500a0 	lw	$5,160($30)
80002878:	8fc600a4 	lw	$6,164($30)
8000287c:	8fc700a8 	lw	$7,168($30)
80002880:	24040001 	addiu	$4,$0,1
80002884:	0c000410 	jal	80001040 <_Z6updateb17RoutingTableEntry>
80002888:	00000000 	sll	$0,$0,0x0
8000288c:	3c020002 	lui	$2,0x2
80002890:	3442000a 	ori	$2,$2,0xa
80002894:	afc200a0 	sw	$2,160($30)
80002898:	3c0200fe 	lui	$2,0xfe
8000289c:	3442ffff 	ori	$2,$2,0xffff
800028a0:	afc200b0 	sw	$2,176($30)
800028a4:	24020002 	addiu	$2,$0,2
800028a8:	afc200a4 	sw	$2,164($30)
800028ac:	3c020202 	lui	$2,0x202
800028b0:	344200aa 	ori	$2,$2,0xaa
800028b4:	afc200a8 	sw	$2,168($30)
800028b8:	24020002 	addiu	$2,$0,2
800028bc:	afc200ac 	sw	$2,172($30)
800028c0:	8fc600ac 	lw	$6,172($30)
800028c4:	8fc500b0 	lw	$5,176($30)
800028c8:	8fc400b4 	lw	$4,180($30)
800028cc:	8fc300b8 	lw	$3,184($30)
800028d0:	8fc200bc 	lw	$2,188($30)
800028d4:	afa60010 	sw	$6,16($29)
800028d8:	afa50014 	sw	$5,20($29)
800028dc:	afa40018 	sw	$4,24($29)
800028e0:	afa3001c 	sw	$3,28($29)
800028e4:	afa20020 	sw	$2,32($29)
800028e8:	8fc500a0 	lw	$5,160($30)
800028ec:	8fc600a4 	lw	$6,164($30)
800028f0:	8fc700a8 	lw	$7,168($30)
800028f4:	24040001 	addiu	$4,$0,1
800028f8:	0c000410 	jal	80001040 <_Z6updateb17RoutingTableEntry>
800028fc:	00000000 	sll	$0,$0,0x0
80002900:	3c028000 	lui	$2,0x8000
80002904:	24443f6c 	addiu	$4,$2,16236
80002908:	0c000111 	jal	80000444 <_Z9putstringPKc>
8000290c:	00000000 	sll	$0,$0,0x0
80002910:	3c02bd00 	lui	$2,0xbd00
80002914:	afc2007c 	sw	$2,124($30)
80002918:	3c02bf00 	lui	$2,0xbf00
8000291c:	afc20080 	sw	$2,128($30)
80002920:	3c028000 	lui	$2,0x8000
80002924:	24443f7c 	addiu	$4,$2,16252
80002928:	0c000111 	jal	80000444 <_Z9putstringPKc>
8000292c:	00000000 	sll	$0,$0,0x0
80002930:	3c028000 	lui	$2,0x8000
80002934:	8c424298 	lw	$2,17048($2)
80002938:	00003825 	or	$7,$0,$0
8000293c:	24060010 	addiu	$6,$0,16
80002940:	24050002 	addiu	$5,$0,2
80002944:	00402025 	or	$4,$2,$0
80002948:	0c000135 	jal	800004d4 <_Z9printbaseliii>
8000294c:	00000000 	sll	$0,$0,0x0
80002950:	2404000a 	addiu	$4,$0,10
80002954:	0c000100 	jal	80000400 <putchar>
80002958:	00000000 	sll	$0,$0,0x0
8000295c:	00001025 	or	$2,$0,$0
80002960:	00001825 	or	$3,$0,$0
80002964:	afc20030 	sw	$2,48($30)
80002968:	afc30034 	sw	$3,52($30)
8000296c:	afc20038 	sw	$2,56($30)
80002970:	afc3003c 	sw	$3,60($30)
80002974:	afc20040 	sw	$2,64($30)
80002978:	afc30044 	sw	$3,68($30)
8000297c:	8fc40030 	lw	$4,48($30)
80002980:	8fc50034 	lw	$5,52($30)
80002984:	24060001 	addiu	$6,$0,1
80002988:	00003825 	or	$7,$0,$0
8000298c:	00861021 	addu	$2,$4,$6
80002990:	0044402b 	sltu	$8,$2,$4
80002994:	00a71821 	addu	$3,$5,$7
80002998:	01032021 	addu	$4,$8,$3
8000299c:	00801825 	or	$3,$4,$0
800029a0:	afc20030 	sw	$2,48($30)
800029a4:	afc30034 	sw	$3,52($30)
800029a8:	8fc30030 	lw	$3,48($30)
800029ac:	3c020002 	lui	$2,0x2
800029b0:	344222e0 	ori	$2,$2,0x22e0
800029b4:	1462001e 	bne	$3,$2,80002a30 <main+0x36c>
800029b8:	00000000 	sll	$0,$0,0x0
800029bc:	8fc20034 	lw	$2,52($30)
800029c0:	1440001b 	bnez	$2,80002a30 <main+0x36c>
800029c4:	00000000 	sll	$0,$0,0x0
800029c8:	00001025 	or	$2,$0,$0
800029cc:	00001825 	or	$3,$0,$0
800029d0:	afc20030 	sw	$2,48($30)
800029d4:	afc30034 	sw	$3,52($30)
800029d8:	8fc40038 	lw	$4,56($30)
800029dc:	8fc5003c 	lw	$5,60($30)
800029e0:	24060001 	addiu	$6,$0,1
800029e4:	00003825 	or	$7,$0,$0
800029e8:	00861021 	addu	$2,$4,$6
800029ec:	0044402b 	sltu	$8,$2,$4
800029f0:	00a71821 	addu	$3,$5,$7
800029f4:	01032021 	addu	$4,$8,$3
800029f8:	00801825 	or	$3,$4,$0
800029fc:	afc20038 	sw	$2,56($30)
80002a00:	afc3003c 	sw	$3,60($30)
80002a04:	8fc40040 	lw	$4,64($30)
80002a08:	8fc50044 	lw	$5,68($30)
80002a0c:	24060001 	addiu	$6,$0,1
80002a10:	00003825 	or	$7,$0,$0
80002a14:	00861021 	addu	$2,$4,$6
80002a18:	0044402b 	sltu	$8,$2,$4
80002a1c:	00a71821 	addu	$3,$5,$7
80002a20:	01032021 	addu	$4,$8,$3
80002a24:	00801825 	or	$3,$4,$0
80002a28:	afc20040 	sw	$2,64($30)
80002a2c:	afc30044 	sw	$3,68($30)
80002a30:	8fc30040 	lw	$3,64($30)
80002a34:	2402001e 	addiu	$2,$0,30
80002a38:	14620110 	bne	$3,$2,80002e7c <main+0x7b8>
80002a3c:	00000000 	sll	$0,$0,0x0
80002a40:	8fc20044 	lw	$2,68($30)
80002a44:	1440010d 	bnez	$2,80002e7c <main+0x7b8>
80002a48:	00000000 	sll	$0,$0,0x0
80002a4c:	00001025 	or	$2,$0,$0
80002a50:	00001825 	or	$3,$0,$0
80002a54:	afc20040 	sw	$2,64($30)
80002a58:	afc30044 	sw	$3,68($30)
80002a5c:	3c028000 	lui	$2,0x8000
80002a60:	24443f8c 	addiu	$4,$2,16268
80002a64:	0c000111 	jal	80000444 <_Z9putstringPKc>
80002a68:	00000000 	sll	$0,$0,0x0
80002a6c:	24020002 	addiu	$2,$0,2
80002a70:	a3c200e8 	sb	$2,232($30)
80002a74:	afc000e4 	sw	$0,228($30)
80002a78:	2404000a 	addiu	$4,$0,10
80002a7c:	0c000100 	jal	80000400 <putchar>
80002a80:	00000000 	sll	$0,$0,0x0
80002a84:	24020001 	addiu	$2,$0,1
80002a88:	afc20048 	sw	$2,72($30)
80002a8c:	3c028000 	lui	$2,0x8000
80002a90:	8c424298 	lw	$2,17048($2)
80002a94:	00401825 	or	$3,$2,$0
80002a98:	8fc20048 	lw	$2,72($30)
80002a9c:	0062102a 	slt	$2,$3,$2
80002aa0:	1440003f 	bnez	$2,80002ba0 <main+0x4dc>
80002aa4:	00000000 	sll	$0,$0,0x0
80002aa8:	3c028000 	lui	$2,0x8000
80002aac:	8fc30048 	lw	$3,72($30)
80002ab0:	00031940 	sll	$3,$3,0x5
80002ab4:	244242f0 	addiu	$2,$2,17136
80002ab8:	00621021 	addu	$2,$3,$2
80002abc:	8c420008 	lw	$2,8($2)
80002ac0:	10400032 	beqz	$2,80002b8c <main+0x4c8>
80002ac4:	00000000 	sll	$0,$0,0x0
80002ac8:	8fc200e4 	lw	$2,228($30)
80002acc:	3c038000 	lui	$3,0x8000
80002ad0:	8fc40048 	lw	$4,72($30)
80002ad4:	00042140 	sll	$4,$4,0x5
80002ad8:	246342f0 	addiu	$3,$3,17136
80002adc:	00831821 	addu	$3,$4,$3
80002ae0:	8c630000 	lw	$3,0($3)
80002ae4:	00021100 	sll	$2,$2,0x4
80002ae8:	27c40030 	addiu	$4,$30,48
80002aec:	00821021 	addu	$2,$4,$2
80002af0:	ac4300bc 	sw	$3,188($2)
80002af4:	8fc200e4 	lw	$2,228($30)
80002af8:	3c038000 	lui	$3,0x8000
80002afc:	8fc40048 	lw	$4,72($30)
80002b00:	00042140 	sll	$4,$4,0x5
80002b04:	246342f0 	addiu	$3,$3,17136
80002b08:	00831821 	addu	$3,$4,$3
80002b0c:	8c630010 	lw	$3,16($3)
80002b10:	00021100 	sll	$2,$2,0x4
80002b14:	27c40030 	addiu	$4,$30,48
80002b18:	00821021 	addu	$2,$4,$2
80002b1c:	ac4300c0 	sw	$3,192($2)
80002b20:	8fc200e4 	lw	$2,228($30)
80002b24:	3c038000 	lui	$3,0x8000
80002b28:	8fc40048 	lw	$4,72($30)
80002b2c:	00042140 	sll	$4,$4,0x5
80002b30:	246342f0 	addiu	$3,$3,17136
80002b34:	00831821 	addu	$3,$4,$3
80002b38:	8c630008 	lw	$3,8($3)
80002b3c:	24420001 	addiu	$2,$2,1
80002b40:	00021100 	sll	$2,$2,0x4
80002b44:	27c40030 	addiu	$4,$30,48
80002b48:	00821021 	addu	$2,$4,$2
80002b4c:	ac4300b4 	sw	$3,180($2)
80002b50:	8fc400e4 	lw	$4,228($30)
80002b54:	3c038000 	lui	$3,0x8000
80002b58:	8fc20048 	lw	$2,72($30)
80002b5c:	246342f0 	addiu	$3,$3,17136
80002b60:	00021140 	sll	$2,$2,0x5
80002b64:	00621021 	addu	$2,$3,$2
80002b68:	8c43000c 	lw	$3,12($2)
80002b6c:	24820001 	addiu	$2,$4,1
80002b70:	00021100 	sll	$2,$2,0x4
80002b74:	27c40030 	addiu	$4,$30,48
80002b78:	00821021 	addu	$2,$4,$2
80002b7c:	ac4300b8 	sw	$3,184($2)
80002b80:	8fc200e4 	lw	$2,228($30)
80002b84:	24420001 	addiu	$2,$2,1
80002b88:	afc200e4 	sw	$2,228($30)
80002b8c:	8fc20048 	lw	$2,72($30)
80002b90:	24420001 	addiu	$2,$2,1
80002b94:	afc20048 	sw	$2,72($30)
80002b98:	1000ffbc 	beqz	$0,80002a8c <main+0x3c8>
80002b9c:	00000000 	sll	$0,$0,0x0
80002ba0:	27c300e4 	addiu	$3,$30,228
80002ba4:	3c028001 	lui	$2,0x8001
80002ba8:	2445c8cc 	addiu	$5,$2,-14132
80002bac:	00602025 	or	$4,$3,$0
80002bb0:	0c000899 	jal	80002264 <_Z8assemblePK9RipPacketPh>
80002bb4:	00000000 	sll	$0,$0,0x0
80002bb8:	afc20084 	sw	$2,132($30)
80002bbc:	3c028001 	lui	$2,0x8001
80002bc0:	24030045 	addiu	$3,$0,69
80002bc4:	a043c8b0 	sb	$3,-14160($2)
80002bc8:	3c028001 	lui	$2,0x8001
80002bcc:	2442c8b0 	addiu	$2,$2,-14160
80002bd0:	2403ffc0 	addiu	$3,$0,-64
80002bd4:	a0430001 	sb	$3,1($2)
80002bd8:	8fc20084 	lw	$2,132($30)
80002bdc:	2442001c 	addiu	$2,$2,28
80002be0:	00021202 	srl	$2,$2,0x8
80002be4:	304300ff 	andi	$3,$2,0xff
80002be8:	3c028001 	lui	$2,0x8001
80002bec:	2442c8b0 	addiu	$2,$2,-14160
80002bf0:	a0430002 	sb	$3,2($2)
80002bf4:	8fc20084 	lw	$2,132($30)
80002bf8:	304200ff 	andi	$2,$2,0xff
80002bfc:	2442001c 	addiu	$2,$2,28
80002c00:	304300ff 	andi	$3,$2,0xff
80002c04:	3c028001 	lui	$2,0x8001
80002c08:	2442c8b0 	addiu	$2,$2,-14160
80002c0c:	a0430003 	sb	$3,3($2)
80002c10:	3c028001 	lui	$2,0x8001
80002c14:	2442c8b0 	addiu	$2,$2,-14160
80002c18:	24030040 	addiu	$3,$0,64
80002c1c:	a0430006 	sb	$3,6($2)
80002c20:	3c028001 	lui	$2,0x8001
80002c24:	2442c8b0 	addiu	$2,$2,-14160
80002c28:	a0400007 	sb	$0,7($2)
80002c2c:	3c028001 	lui	$2,0x8001
80002c30:	2442c8b0 	addiu	$2,$2,-14160
80002c34:	24030001 	addiu	$3,$0,1
80002c38:	a0430008 	sb	$3,8($2)
80002c3c:	3c028001 	lui	$2,0x8001
80002c40:	2442c8b0 	addiu	$2,$2,-14160
80002c44:	24030011 	addiu	$3,$0,17
80002c48:	a0430009 	sb	$3,9($2)
80002c4c:	3c028001 	lui	$2,0x8001
80002c50:	2442c8b0 	addiu	$2,$2,-14160
80002c54:	2403ffe0 	addiu	$3,$0,-32
80002c58:	a0430010 	sb	$3,16($2)
80002c5c:	3c028001 	lui	$2,0x8001
80002c60:	2442c8b0 	addiu	$2,$2,-14160
80002c64:	a0400011 	sb	$0,17($2)
80002c68:	3c028001 	lui	$2,0x8001
80002c6c:	2442c8b0 	addiu	$2,$2,-14160
80002c70:	a0400012 	sb	$0,18($2)
80002c74:	3c028001 	lui	$2,0x8001
80002c78:	2442c8b0 	addiu	$2,$2,-14160
80002c7c:	24030009 	addiu	$3,$0,9
80002c80:	a0430013 	sb	$3,19($2)
80002c84:	3c028001 	lui	$2,0x8001
80002c88:	2442c8b0 	addiu	$2,$2,-14160
80002c8c:	24030002 	addiu	$3,$0,2
80002c90:	a0430014 	sb	$3,20($2)
80002c94:	3c028001 	lui	$2,0x8001
80002c98:	2442c8b0 	addiu	$2,$2,-14160
80002c9c:	24030008 	addiu	$3,$0,8
80002ca0:	a0430015 	sb	$3,21($2)
80002ca4:	3c028001 	lui	$2,0x8001
80002ca8:	2442c8b0 	addiu	$2,$2,-14160
80002cac:	24030002 	addiu	$3,$0,2
80002cb0:	a0430016 	sb	$3,22($2)
80002cb4:	3c028001 	lui	$2,0x8001
80002cb8:	2442c8b0 	addiu	$2,$2,-14160
80002cbc:	24030008 	addiu	$3,$0,8
80002cc0:	a0430017 	sb	$3,23($2)
80002cc4:	8fc20084 	lw	$2,132($30)
80002cc8:	24420008 	addiu	$2,$2,8
80002ccc:	00021202 	srl	$2,$2,0x8
80002cd0:	304300ff 	andi	$3,$2,0xff
80002cd4:	3c028001 	lui	$2,0x8001
80002cd8:	2442c8b0 	addiu	$2,$2,-14160
80002cdc:	a0430018 	sb	$3,24($2)
80002ce0:	8fc20084 	lw	$2,132($30)
80002ce4:	304200ff 	andi	$2,$2,0xff
80002ce8:	24420008 	addiu	$2,$2,8
80002cec:	304300ff 	andi	$3,$2,0xff
80002cf0:	3c028001 	lui	$2,0x8001
80002cf4:	2442c8b0 	addiu	$2,$2,-14160
80002cf8:	a0430019 	sb	$3,25($2)
80002cfc:	8fc20084 	lw	$2,132($30)
80002d00:	24420008 	addiu	$2,$2,8
80002d04:	00402825 	or	$5,$2,$0
80002d08:	3c028001 	lui	$2,0x8001
80002d0c:	2444c8c4 	addiu	$4,$2,-14140
80002d10:	0c0003ac 	jal	80000eb0 <_Z19calculateIPChecksumPhj>
80002d14:	00000000 	sll	$0,$0,0x0
80002d18:	8fc200e4 	lw	$2,228($30)
80002d1c:	00003825 	or	$7,$0,$0
80002d20:	2406000a 	addiu	$6,$0,10
80002d24:	24050001 	addiu	$5,$0,1
80002d28:	00402025 	or	$4,$2,$0
80002d2c:	0c000135 	jal	800004d4 <_Z9printbaseliii>
80002d30:	00000000 	sll	$0,$0,0x0
80002d34:	3c028000 	lui	$2,0x8000
80002d38:	24443fb0 	addiu	$4,$2,16304
80002d3c:	0c000111 	jal	80000444 <_Z9putstringPKc>
80002d40:	00000000 	sll	$0,$0,0x0
80002d44:	3c028000 	lui	$2,0x8000
80002d48:	8c434008 	lw	$3,16392($2)
80002d4c:	afc300d4 	sw	$3,212($30)
80002d50:	24424008 	addiu	$2,$2,16392
80002d54:	94420004 	lhu	$2,4($2)
80002d58:	a7c200d8 	sh	$2,216($30)
80002d5c:	afc0004c 	sw	$0,76($30)
80002d60:	8fc2004c 	lw	$2,76($30)
80002d64:	28420004 	slti	$2,$2,4
80002d68:	10400044 	beqz	$2,80002e7c <main+0x7b8>
80002d6c:	00000000 	sll	$0,$0,0x0
80002d70:	3c028000 	lui	$2,0x8000
80002d74:	8fc3004c 	lw	$3,76($30)
80002d78:	00031880 	sll	$3,$3,0x2
80002d7c:	244242dc 	addiu	$2,$2,17116
80002d80:	00621021 	addu	$2,$3,$2
80002d84:	8c420000 	lw	$2,0($2)
80002d88:	00021602 	srl	$2,$2,0x18
80002d8c:	304300ff 	andi	$3,$2,0xff
80002d90:	3c028001 	lui	$2,0x8001
80002d94:	2442c8b0 	addiu	$2,$2,-14160
80002d98:	a043000f 	sb	$3,15($2)
80002d9c:	3c028000 	lui	$2,0x8000
80002da0:	8fc3004c 	lw	$3,76($30)
80002da4:	00031880 	sll	$3,$3,0x2
80002da8:	244242dc 	addiu	$2,$2,17116
80002dac:	00621021 	addu	$2,$3,$2
80002db0:	8c420000 	lw	$2,0($2)
80002db4:	00021402 	srl	$2,$2,0x10
80002db8:	304300ff 	andi	$3,$2,0xff
80002dbc:	3c028001 	lui	$2,0x8001
80002dc0:	2442c8b0 	addiu	$2,$2,-14160
80002dc4:	a043000e 	sb	$3,14($2)
80002dc8:	3c028000 	lui	$2,0x8000
80002dcc:	8fc3004c 	lw	$3,76($30)
80002dd0:	00031880 	sll	$3,$3,0x2
80002dd4:	244242dc 	addiu	$2,$2,17116
80002dd8:	00621021 	addu	$2,$3,$2
80002ddc:	8c420000 	lw	$2,0($2)
80002de0:	00021202 	srl	$2,$2,0x8
80002de4:	304300ff 	andi	$3,$2,0xff
80002de8:	3c028001 	lui	$2,0x8001
80002dec:	2442c8b0 	addiu	$2,$2,-14160
80002df0:	a043000d 	sb	$3,13($2)
80002df4:	3c028000 	lui	$2,0x8000
80002df8:	8fc3004c 	lw	$3,76($30)
80002dfc:	00031880 	sll	$3,$3,0x2
80002e00:	244242dc 	addiu	$2,$2,17116
80002e04:	00621021 	addu	$2,$3,$2
80002e08:	8c420000 	lw	$2,0($2)
80002e0c:	304300ff 	andi	$3,$2,0xff
80002e10:	3c028001 	lui	$2,0x8001
80002e14:	2442c8b0 	addiu	$2,$2,-14160
80002e18:	a043000c 	sb	$3,12($2)
80002e1c:	8fc20084 	lw	$2,132($30)
80002e20:	2442001c 	addiu	$2,$2,28
80002e24:	00402825 	or	$5,$2,$0
80002e28:	3c028001 	lui	$2,0x8001
80002e2c:	2444c8b0 	addiu	$4,$2,-14160
80002e30:	0c000345 	jal	80000d14 <_Z18validateIPChecksumPhj>
80002e34:	00000000 	sll	$0,$0,0x0
80002e38:	8fc2004c 	lw	$2,76($30)
80002e3c:	24430001 	addiu	$3,$2,1
80002e40:	8fc20084 	lw	$2,132($30)
80002e44:	2442001c 	addiu	$2,$2,28
80002e48:	27c400d4 	addiu	$4,$30,212
80002e4c:	00803825 	or	$7,$4,$0
80002e50:	00403025 	or	$6,$2,$0
80002e54:	3c028001 	lui	$2,0x8001
80002e58:	2445c8b0 	addiu	$5,$2,-14160
80002e5c:	00602025 	or	$4,$3,$0
80002e60:	0c00026c 	jal	800009b0 <_Z16HAL_SendIPPacketiPhjS_>
80002e64:	00000000 	sll	$0,$0,0x0
80002e68:	8fc2004c 	lw	$2,76($30)
80002e6c:	24420001 	addiu	$2,$2,1
80002e70:	afc2004c 	sw	$2,76($30)
80002e74:	1000ffba 	beqz	$0,80002d60 <main+0x69c>
80002e78:	00000000 	sll	$0,$0,0x0
80002e7c:	2402000f 	addiu	$2,$0,15
80002e80:	afc20088 	sw	$2,136($30)
80002e84:	27c400c0 	addiu	$4,$30,192
80002e88:	27c200d0 	addiu	$2,$30,208
80002e8c:	afa20020 	sw	$2,32($29)
80002e90:	240203e8 	addiu	$2,$0,1000
80002e94:	00001825 	or	$3,$0,$0
80002e98:	afa20018 	sw	$2,24($29)
80002e9c:	afa3001c 	sw	$3,28($29)
80002ea0:	27c200c8 	addiu	$2,$30,200
80002ea4:	afa20010 	sw	$2,16($29)
80002ea8:	00803825 	or	$7,$4,$0
80002eac:	24060800 	addiu	$6,$0,2048
80002eb0:	3c028001 	lui	$2,0x8001
80002eb4:	2445c0b0 	addiu	$5,$2,-16208
80002eb8:	8fc40088 	lw	$4,136($30)
80002ebc:	0c0001bd 	jal	800006f4 <_Z19HAL_ReceiveIPPacketiPhjS_S_xPi>
80002ec0:	00000000 	sll	$0,$0,0x0
80002ec4:	afc20078 	sw	$2,120($30)
80002ec8:	8fc30078 	lw	$3,120($30)
80002ecc:	2402fc1c 	addiu	$2,$0,-996
80002ed0:	14620004 	bne	$3,$2,80002ee4 <main+0x820>
80002ed4:	00000000 	sll	$0,$0,0x0
80002ed8:	00001025 	or	$2,$0,$0
80002edc:	100003fd 	beqz	$0,80003ed4 <main+0x1810>
80002ee0:	00000000 	sll	$0,$0,0x0
80002ee4:	8fc20078 	lw	$2,120($30)
80002ee8:	04410004 	bgez	$2,80002efc <main+0x838>
80002eec:	00000000 	sll	$0,$0,0x0
80002ef0:	8fc20078 	lw	$2,120($30)
80002ef4:	100003f7 	beqz	$0,80003ed4 <main+0x1810>
80002ef8:	00000000 	sll	$0,$0,0x0
80002efc:	8fc20078 	lw	$2,120($30)
80002f00:	104003ee 	beqz	$2,80003ebc <main+0x17f8>
80002f04:	00000000 	sll	$0,$0,0x0
80002f08:	8fc20078 	lw	$2,120($30)
80002f0c:	2c420801 	sltiu	$2,$2,2049
80002f10:	104003ed 	beqz	$2,80003ec8 <main+0x1804>
80002f14:	00000000 	sll	$0,$0,0x0
80002f18:	00003825 	or	$7,$0,$0
80002f1c:	2406000a 	addiu	$6,$0,10
80002f20:	24050001 	addiu	$5,$0,1
80002f24:	8fc40078 	lw	$4,120($30)
80002f28:	0c000135 	jal	800004d4 <_Z9printbaseliii>
80002f2c:	00000000 	sll	$0,$0,0x0
80002f30:	24040020 	addiu	$4,$0,32
80002f34:	0c000100 	jal	80000400 <putchar>
80002f38:	00000000 	sll	$0,$0,0x0
80002f3c:	afc00050 	sw	$0,80($30)
80002f40:	8fc20050 	lw	$2,80($30)
80002f44:	28420006 	slti	$2,$2,6
80002f48:	10400010 	beqz	$2,80002f8c <main+0x8c8>
80002f4c:	00000000 	sll	$0,$0,0x0
80002f50:	8fc20050 	lw	$2,80($30)
80002f54:	27c30030 	addiu	$3,$30,48
80002f58:	00621021 	addu	$2,$3,$2
80002f5c:	90420090 	lbu	$2,144($2)
80002f60:	00003825 	or	$7,$0,$0
80002f64:	24060010 	addiu	$6,$0,16
80002f68:	24050002 	addiu	$5,$0,2
80002f6c:	00402025 	or	$4,$2,$0
80002f70:	0c000135 	jal	800004d4 <_Z9printbaseliii>
80002f74:	00000000 	sll	$0,$0,0x0
80002f78:	8fc20050 	lw	$2,80($30)
80002f7c:	24420001 	addiu	$2,$2,1
80002f80:	afc20050 	sw	$2,80($30)
80002f84:	1000ffee 	beqz	$0,80002f40 <main+0x87c>
80002f88:	00000000 	sll	$0,$0,0x0
80002f8c:	24040020 	addiu	$4,$0,32
80002f90:	0c000100 	jal	80000400 <putchar>
80002f94:	00000000 	sll	$0,$0,0x0
80002f98:	afc00054 	sw	$0,84($30)
80002f9c:	8fc20054 	lw	$2,84($30)
80002fa0:	28420006 	slti	$2,$2,6
80002fa4:	10400010 	beqz	$2,80002fe8 <main+0x924>
80002fa8:	00000000 	sll	$0,$0,0x0
80002fac:	8fc20054 	lw	$2,84($30)
80002fb0:	27c30030 	addiu	$3,$30,48
80002fb4:	00621021 	addu	$2,$3,$2
80002fb8:	90420098 	lbu	$2,152($2)
80002fbc:	00003825 	or	$7,$0,$0
80002fc0:	24060010 	addiu	$6,$0,16
80002fc4:	24050002 	addiu	$5,$0,2
80002fc8:	00402025 	or	$4,$2,$0
80002fcc:	0c000135 	jal	800004d4 <_Z9printbaseliii>
80002fd0:	00000000 	sll	$0,$0,0x0
80002fd4:	8fc20054 	lw	$2,84($30)
80002fd8:	24420001 	addiu	$2,$2,1
80002fdc:	afc20054 	sw	$2,84($30)
80002fe0:	1000ffee 	beqz	$0,80002f9c <main+0x8d8>
80002fe4:	00000000 	sll	$0,$0,0x0
80002fe8:	24040020 	addiu	$4,$0,32
80002fec:	0c000100 	jal	80000400 <putchar>
80002ff0:	00000000 	sll	$0,$0,0x0
80002ff4:	8fc200d0 	lw	$2,208($30)
80002ff8:	00003825 	or	$7,$0,$0
80002ffc:	2406000a 	addiu	$6,$0,10
80003000:	24050001 	addiu	$5,$0,1
80003004:	00402025 	or	$4,$2,$0
80003008:	0c000135 	jal	800004d4 <_Z9printbaseliii>
8000300c:	00000000 	sll	$0,$0,0x0
80003010:	2404000a 	addiu	$4,$0,10
80003014:	0c000100 	jal	80000400 <putchar>
80003018:	00000000 	sll	$0,$0,0x0
8000301c:	8fc20078 	lw	$2,120($30)
80003020:	00402825 	or	$5,$2,$0
80003024:	3c028001 	lui	$2,0x8001
80003028:	2444c0b0 	addiu	$4,$2,-16208
8000302c:	0c000345 	jal	80000d14 <_Z18validateIPChecksumPhj>
80003030:	00000000 	sll	$0,$0,0x0
80003034:	38420001 	xori	$2,$2,0x1
80003038:	304200ff 	andi	$2,$2,0xff
8000303c:	10400007 	beqz	$2,8000305c <main+0x998>
80003040:	00000000 	sll	$0,$0,0x0
80003044:	3c028000 	lui	$2,0x8000
80003048:	24443fbc 	addiu	$4,$2,16316
8000304c:	0c000111 	jal	80000444 <_Z9putstringPKc>
80003050:	00000000 	sll	$0,$0,0x0
80003054:	1000039d 	beqz	$0,80003ecc <main+0x1808>
80003058:	00000000 	sll	$0,$0,0x0
8000305c:	3c028001 	lui	$2,0x8001
80003060:	2442c0b0 	addiu	$2,$2,-16208
80003064:	9042000c 	lbu	$2,12($2)
80003068:	00401825 	or	$3,$2,$0
8000306c:	3c028001 	lui	$2,0x8001
80003070:	2442c0b0 	addiu	$2,$2,-16208
80003074:	9042000d 	lbu	$2,13($2)
80003078:	00021200 	sll	$2,$2,0x8
8000307c:	00621825 	or	$3,$3,$2
80003080:	3c028001 	lui	$2,0x8001
80003084:	2442c0b0 	addiu	$2,$2,-16208
80003088:	9042000e 	lbu	$2,14($2)
8000308c:	00021400 	sll	$2,$2,0x10
80003090:	00621825 	or	$3,$3,$2
80003094:	3c028001 	lui	$2,0x8001
80003098:	2442c0b0 	addiu	$2,$2,-16208
8000309c:	9042000f 	lbu	$2,15($2)
800030a0:	00021600 	sll	$2,$2,0x18
800030a4:	00621025 	or	$2,$3,$2
800030a8:	afc2008c 	sw	$2,140($30)
800030ac:	3c028001 	lui	$2,0x8001
800030b0:	2442c0b0 	addiu	$2,$2,-16208
800030b4:	90420010 	lbu	$2,16($2)
800030b8:	00401825 	or	$3,$2,$0
800030bc:	3c028001 	lui	$2,0x8001
800030c0:	2442c0b0 	addiu	$2,$2,-16208
800030c4:	90420011 	lbu	$2,17($2)
800030c8:	00021200 	sll	$2,$2,0x8
800030cc:	00621825 	or	$3,$3,$2
800030d0:	3c028001 	lui	$2,0x8001
800030d4:	2442c0b0 	addiu	$2,$2,-16208
800030d8:	90420012 	lbu	$2,18($2)
800030dc:	00021400 	sll	$2,$2,0x10
800030e0:	00621825 	or	$3,$3,$2
800030e4:	3c028001 	lui	$2,0x8001
800030e8:	2442c0b0 	addiu	$2,$2,-16208
800030ec:	90420013 	lbu	$2,19($2)
800030f0:	00021600 	sll	$2,$2,0x18
800030f4:	00621025 	or	$2,$3,$2
800030f8:	afc20090 	sw	$2,144($30)
800030fc:	a3c00058 	sb	$0,88($30)
80003100:	afc0005c 	sw	$0,92($30)
80003104:	8fc2005c 	lw	$2,92($30)
80003108:	28420004 	slti	$2,$2,4
8000310c:	10400013 	beqz	$2,8000315c <main+0xa98>
80003110:	00000000 	sll	$0,$0,0x0
80003114:	3c028000 	lui	$2,0x8000
80003118:	8fc3005c 	lw	$3,92($30)
8000311c:	00031880 	sll	$3,$3,0x2
80003120:	244242dc 	addiu	$2,$2,17116
80003124:	00621021 	addu	$2,$3,$2
80003128:	8c420000 	lw	$2,0($2)
8000312c:	8fc30090 	lw	$3,144($30)
80003130:	14620005 	bne	$3,$2,80003148 <main+0xa84>
80003134:	00000000 	sll	$0,$0,0x0
80003138:	24020001 	addiu	$2,$0,1
8000313c:	a3c20058 	sb	$2,88($30)
80003140:	10000006 	beqz	$0,8000315c <main+0xa98>
80003144:	00000000 	sll	$0,$0,0x0
80003148:	8fc2005c 	lw	$2,92($30)
8000314c:	24420001 	addiu	$2,$2,1
80003150:	afc2005c 	sw	$2,92($30)
80003154:	1000ffeb 	beqz	$0,80003104 <main+0xa40>
80003158:	00000000 	sll	$0,$0,0x0
8000315c:	8fc30090 	lw	$3,144($30)
80003160:	3c020900 	lui	$2,0x900
80003164:	344200e0 	ori	$2,$2,0xe0
80003168:	14620003 	bne	$3,$2,80003178 <main+0xab4>
8000316c:	00000000 	sll	$0,$0,0x0
80003170:	24020001 	addiu	$2,$0,1
80003174:	a3c20058 	sb	$2,88($30)
80003178:	93c20058 	lbu	$2,88($30)
8000317c:	1040fdff 	beqz	$2,8000297c <main+0x2b8>
80003180:	00000000 	sll	$0,$0,0x0
80003184:	3c028000 	lui	$2,0x8000
80003188:	24443fd4 	addiu	$4,$2,16340
8000318c:	0c000111 	jal	80000444 <_Z9putstringPKc>
80003190:	00000000 	sll	$0,$0,0x0
80003194:	8fc20078 	lw	$2,120($30)
80003198:	27c3027c 	addiu	$3,$30,636
8000319c:	00603025 	or	$6,$3,$0
800031a0:	00402825 	or	$5,$2,$0
800031a4:	3c028001 	lui	$2,0x8001
800031a8:	2444c0b0 	addiu	$4,$2,-16208
800031ac:	0c0007b7 	jal	80001edc <_Z11disassemblePKhjP9RipPacket>
800031b0:	00000000 	sll	$0,$0,0x0
800031b4:	1040fdf1 	beqz	$2,8000297c <main+0x2b8>
800031b8:	00000000 	sll	$0,$0,0x0
800031bc:	3c028000 	lui	$2,0x8000
800031c0:	24443ff8 	addiu	$4,$2,16376
800031c4:	0c000111 	jal	80000444 <_Z9putstringPKc>
800031c8:	00000000 	sll	$0,$0,0x0
800031cc:	93c30280 	lbu	$3,640($30)
800031d0:	24020001 	addiu	$2,$0,1
800031d4:	14620156 	bne	$3,$2,80003730 <main+0x106c>
800031d8:	00000000 	sll	$0,$0,0x0
800031dc:	8fc3027c 	lw	$3,636($30)
800031e0:	24020001 	addiu	$2,$0,1
800031e4:	1462004e 	bne	$3,$2,80003320 <main+0xc5c>
800031e8:	00000000 	sll	$0,$0,0x0
800031ec:	8fc30290 	lw	$3,656($30)
800031f0:	24020010 	addiu	$2,$0,16
800031f4:	1462004a 	bne	$3,$2,80003320 <main+0xc5c>
800031f8:	00000000 	sll	$0,$0,0x0
800031fc:	24020002 	addiu	$2,$0,2
80003200:	a3c200e8 	sb	$2,232($30)
80003204:	afc000e4 	sw	$0,228($30)
80003208:	24020001 	addiu	$2,$0,1
8000320c:	afc20060 	sw	$2,96($30)
80003210:	8fc30060 	lw	$3,96($30)
80003214:	3c028000 	lui	$2,0x8000
80003218:	8c424298 	lw	$2,17048($2)
8000321c:	0043102b 	sltu	$2,$2,$3
80003220:	1440009c 	bnez	$2,80003494 <main+0xdd0>
80003224:	00000000 	sll	$0,$0,0x0
80003228:	3c028000 	lui	$2,0x8000
8000322c:	8fc30060 	lw	$3,96($30)
80003230:	00031940 	sll	$3,$3,0x5
80003234:	244242f0 	addiu	$2,$2,17136
80003238:	00621021 	addu	$2,$3,$2
8000323c:	8c420008 	lw	$2,8($2)
80003240:	10400032 	beqz	$2,8000330c <main+0xc48>
80003244:	00000000 	sll	$0,$0,0x0
80003248:	8fc200e4 	lw	$2,228($30)
8000324c:	3c038000 	lui	$3,0x8000
80003250:	8fc40060 	lw	$4,96($30)
80003254:	00042140 	sll	$4,$4,0x5
80003258:	246342f0 	addiu	$3,$3,17136
8000325c:	00831821 	addu	$3,$4,$3
80003260:	8c630000 	lw	$3,0($3)
80003264:	00021100 	sll	$2,$2,0x4
80003268:	27c40030 	addiu	$4,$30,48
8000326c:	00821021 	addu	$2,$4,$2
80003270:	ac4300bc 	sw	$3,188($2)
80003274:	8fc200e4 	lw	$2,228($30)
80003278:	3c038000 	lui	$3,0x8000
8000327c:	8fc40060 	lw	$4,96($30)
80003280:	00042140 	sll	$4,$4,0x5
80003284:	246342f0 	addiu	$3,$3,17136
80003288:	00831821 	addu	$3,$4,$3
8000328c:	8c630010 	lw	$3,16($3)
80003290:	00021100 	sll	$2,$2,0x4
80003294:	27c40030 	addiu	$4,$30,48
80003298:	00821021 	addu	$2,$4,$2
8000329c:	ac4300c0 	sw	$3,192($2)
800032a0:	8fc200e4 	lw	$2,228($30)
800032a4:	3c038000 	lui	$3,0x8000
800032a8:	8fc40060 	lw	$4,96($30)
800032ac:	00042140 	sll	$4,$4,0x5
800032b0:	246342f0 	addiu	$3,$3,17136
800032b4:	00831821 	addu	$3,$4,$3
800032b8:	8c630008 	lw	$3,8($3)
800032bc:	24420001 	addiu	$2,$2,1
800032c0:	00021100 	sll	$2,$2,0x4
800032c4:	27c40030 	addiu	$4,$30,48
800032c8:	00821021 	addu	$2,$4,$2
800032cc:	ac4300b4 	sw	$3,180($2)
800032d0:	8fc400e4 	lw	$4,228($30)
800032d4:	3c038000 	lui	$3,0x8000
800032d8:	8fc20060 	lw	$2,96($30)
800032dc:	246342f0 	addiu	$3,$3,17136
800032e0:	00021140 	sll	$2,$2,0x5
800032e4:	00621021 	addu	$2,$3,$2
800032e8:	8c43000c 	lw	$3,12($2)
800032ec:	24820001 	addiu	$2,$4,1
800032f0:	00021100 	sll	$2,$2,0x4
800032f4:	27c40030 	addiu	$4,$30,48
800032f8:	00821021 	addu	$2,$4,$2
800032fc:	ac4300b8 	sw	$3,184($2)
80003300:	8fc200e4 	lw	$2,228($30)
80003304:	24420001 	addiu	$2,$2,1
80003308:	afc200e4 	sw	$2,228($30)
8000330c:	8fc20060 	lw	$2,96($30)
80003310:	24420001 	addiu	$2,$2,1
80003314:	afc20060 	sw	$2,96($30)
80003318:	1000ffbd 	beqz	$0,80003210 <main+0xb4c>
8000331c:	00000000 	sll	$0,$0,0x0
80003320:	24020002 	addiu	$2,$0,2
80003324:	a3c200e8 	sb	$2,232($30)
80003328:	afc000e4 	sw	$0,228($30)
8000332c:	afc00064 	sw	$0,100($30)
80003330:	8fc3027c 	lw	$3,636($30)
80003334:	8fc20064 	lw	$2,100($30)
80003338:	0043102b 	sltu	$2,$2,$3
8000333c:	10400056 	beqz	$2,80003498 <main+0xdd4>
80003340:	00000000 	sll	$0,$0,0x0
80003344:	8fc400e4 	lw	$4,228($30)
80003348:	8fc20064 	lw	$2,100($30)
8000334c:	00021100 	sll	$2,$2,0x4
80003350:	27c30030 	addiu	$3,$30,48
80003354:	00621021 	addu	$2,$3,$2
80003358:	8c430254 	lw	$3,596($2)
8000335c:	00041100 	sll	$2,$4,0x4
80003360:	27c40030 	addiu	$4,$30,48
80003364:	00821021 	addu	$2,$4,$2
80003368:	ac4300bc 	sw	$3,188($2)
8000336c:	8fc400e4 	lw	$4,228($30)
80003370:	8fc20064 	lw	$2,100($30)
80003374:	00021100 	sll	$2,$2,0x4
80003378:	27c30030 	addiu	$3,$30,48
8000337c:	00621021 	addu	$2,$3,$2
80003380:	8c430258 	lw	$3,600($2)
80003384:	00041100 	sll	$2,$4,0x4
80003388:	27c40030 	addiu	$4,$30,48
8000338c:	00821021 	addu	$2,$4,$2
80003390:	ac4300c0 	sw	$3,192($2)
80003394:	8fc20064 	lw	$2,100($30)
80003398:	00021100 	sll	$2,$2,0x4
8000339c:	27c30030 	addiu	$3,$30,48
800033a0:	00621021 	addu	$2,$3,$2
800033a4:	8c420254 	lw	$2,596($2)
800033a8:	00402025 	or	$4,$2,$0
800033ac:	0c000762 	jal	80001d88 <_Z5queryj>
800033b0:	00000000 	sll	$0,$0,0x0
800033b4:	1040001c 	beqz	$2,80003428 <main+0xd64>
800033b8:	00000000 	sll	$0,$0,0x0
800033bc:	8fc400e4 	lw	$4,228($30)
800033c0:	8fc20064 	lw	$2,100($30)
800033c4:	24420001 	addiu	$2,$2,1
800033c8:	00021100 	sll	$2,$2,0x4
800033cc:	27c30030 	addiu	$3,$30,48
800033d0:	00621021 	addu	$2,$3,$2
800033d4:	8c43024c 	lw	$3,588($2)
800033d8:	24820001 	addiu	$2,$4,1
800033dc:	00021100 	sll	$2,$2,0x4
800033e0:	27c40030 	addiu	$4,$30,48
800033e4:	00821021 	addu	$2,$4,$2
800033e8:	ac4300b4 	sw	$3,180($2)
800033ec:	3c028001 	lui	$2,0x8001
800033f0:	8c42c090 	lw	$2,-16240($2)
800033f4:	8fc400e4 	lw	$4,228($30)
800033f8:	3c038000 	lui	$3,0x8000
800033fc:	246342f0 	addiu	$3,$3,17136
80003400:	00021140 	sll	$2,$2,0x5
80003404:	00621021 	addu	$2,$3,$2
80003408:	8c43000c 	lw	$3,12($2)
8000340c:	24820001 	addiu	$2,$4,1
80003410:	00021100 	sll	$2,$2,0x4
80003414:	27c40030 	addiu	$4,$30,48
80003418:	00821021 	addu	$2,$4,$2
8000341c:	ac4300b8 	sw	$3,184($2)
80003420:	10000014 	beqz	$0,80003474 <main+0xdb0>
80003424:	00000000 	sll	$0,$0,0x0
80003428:	8fc400e4 	lw	$4,228($30)
8000342c:	8fc20064 	lw	$2,100($30)
80003430:	24420001 	addiu	$2,$2,1
80003434:	00021100 	sll	$2,$2,0x4
80003438:	27c30030 	addiu	$3,$30,48
8000343c:	00621021 	addu	$2,$3,$2
80003440:	8c43024c 	lw	$3,588($2)
80003444:	24820001 	addiu	$2,$4,1
80003448:	00021100 	sll	$2,$2,0x4
8000344c:	27c40030 	addiu	$4,$30,48
80003450:	00821021 	addu	$2,$4,$2
80003454:	ac4300b4 	sw	$3,180($2)
80003458:	8fc200e4 	lw	$2,228($30)
8000345c:	24420001 	addiu	$2,$2,1
80003460:	00021100 	sll	$2,$2,0x4
80003464:	27c30030 	addiu	$3,$30,48
80003468:	00621021 	addu	$2,$3,$2
8000346c:	24030010 	addiu	$3,$0,16
80003470:	ac4300b8 	sw	$3,184($2)
80003474:	8fc200e4 	lw	$2,228($30)
80003478:	24420001 	addiu	$2,$2,1
8000347c:	afc200e4 	sw	$2,228($30)
80003480:	8fc20064 	lw	$2,100($30)
80003484:	24420001 	addiu	$2,$2,1
80003488:	afc20064 	sw	$2,100($30)
8000348c:	1000ffa8 	beqz	$0,80003330 <main+0xc6c>
80003490:	00000000 	sll	$0,$0,0x0
80003494:	00000000 	sll	$0,$0,0x0
80003498:	27c300e4 	addiu	$3,$30,228
8000349c:	3c028001 	lui	$2,0x8001
800034a0:	2445c8cc 	addiu	$5,$2,-14132
800034a4:	00602025 	or	$4,$3,$0
800034a8:	0c000899 	jal	80002264 <_Z8assemblePK9RipPacketPh>
800034ac:	00000000 	sll	$0,$0,0x0
800034b0:	afc2009c 	sw	$2,156($30)
800034b4:	3c028001 	lui	$2,0x8001
800034b8:	24030045 	addiu	$3,$0,69
800034bc:	a043c8b0 	sb	$3,-14160($2)
800034c0:	3c028001 	lui	$2,0x8001
800034c4:	2442c8b0 	addiu	$2,$2,-14160
800034c8:	2403ffc0 	addiu	$3,$0,-64
800034cc:	a0430001 	sb	$3,1($2)
800034d0:	8fc2009c 	lw	$2,156($30)
800034d4:	2442001c 	addiu	$2,$2,28
800034d8:	00021202 	srl	$2,$2,0x8
800034dc:	304300ff 	andi	$3,$2,0xff
800034e0:	3c028001 	lui	$2,0x8001
800034e4:	2442c8b0 	addiu	$2,$2,-14160
800034e8:	a0430002 	sb	$3,2($2)
800034ec:	8fc2009c 	lw	$2,156($30)
800034f0:	304200ff 	andi	$2,$2,0xff
800034f4:	2442001c 	addiu	$2,$2,28
800034f8:	304300ff 	andi	$3,$2,0xff
800034fc:	3c028001 	lui	$2,0x8001
80003500:	2442c8b0 	addiu	$2,$2,-14160
80003504:	a0430003 	sb	$3,3($2)
80003508:	3c028001 	lui	$2,0x8001
8000350c:	2442c8b0 	addiu	$2,$2,-14160
80003510:	24030040 	addiu	$3,$0,64
80003514:	a0430006 	sb	$3,6($2)
80003518:	3c028001 	lui	$2,0x8001
8000351c:	2442c8b0 	addiu	$2,$2,-14160
80003520:	a0400007 	sb	$0,7($2)
80003524:	3c028001 	lui	$2,0x8001
80003528:	2442c8b0 	addiu	$2,$2,-14160
8000352c:	24030001 	addiu	$3,$0,1
80003530:	a0430008 	sb	$3,8($2)
80003534:	3c028001 	lui	$2,0x8001
80003538:	2442c8b0 	addiu	$2,$2,-14160
8000353c:	24030011 	addiu	$3,$0,17
80003540:	a0430009 	sb	$3,9($2)
80003544:	8fc2008c 	lw	$2,140($30)
80003548:	304300ff 	andi	$3,$2,0xff
8000354c:	3c028001 	lui	$2,0x8001
80003550:	2442c8b0 	addiu	$2,$2,-14160
80003554:	a0430010 	sb	$3,16($2)
80003558:	8fc2008c 	lw	$2,140($30)
8000355c:	00021202 	srl	$2,$2,0x8
80003560:	304300ff 	andi	$3,$2,0xff
80003564:	3c028001 	lui	$2,0x8001
80003568:	2442c8b0 	addiu	$2,$2,-14160
8000356c:	a0430011 	sb	$3,17($2)
80003570:	8fc2008c 	lw	$2,140($30)
80003574:	00021402 	srl	$2,$2,0x10
80003578:	304300ff 	andi	$3,$2,0xff
8000357c:	3c028001 	lui	$2,0x8001
80003580:	2442c8b0 	addiu	$2,$2,-14160
80003584:	a0430012 	sb	$3,18($2)
80003588:	8fc2008c 	lw	$2,140($30)
8000358c:	00021602 	srl	$2,$2,0x18
80003590:	304300ff 	andi	$3,$2,0xff
80003594:	3c028001 	lui	$2,0x8001
80003598:	2442c8b0 	addiu	$2,$2,-14160
8000359c:	a0430013 	sb	$3,19($2)
800035a0:	3c028001 	lui	$2,0x8001
800035a4:	2442c8b0 	addiu	$2,$2,-14160
800035a8:	24030002 	addiu	$3,$0,2
800035ac:	a0430014 	sb	$3,20($2)
800035b0:	3c028001 	lui	$2,0x8001
800035b4:	2442c8b0 	addiu	$2,$2,-14160
800035b8:	24030008 	addiu	$3,$0,8
800035bc:	a0430015 	sb	$3,21($2)
800035c0:	3c028001 	lui	$2,0x8001
800035c4:	2442c8b0 	addiu	$2,$2,-14160
800035c8:	24030002 	addiu	$3,$0,2
800035cc:	a0430016 	sb	$3,22($2)
800035d0:	3c028001 	lui	$2,0x8001
800035d4:	2442c8b0 	addiu	$2,$2,-14160
800035d8:	24030008 	addiu	$3,$0,8
800035dc:	a0430017 	sb	$3,23($2)
800035e0:	8fc2009c 	lw	$2,156($30)
800035e4:	24420008 	addiu	$2,$2,8
800035e8:	00021202 	srl	$2,$2,0x8
800035ec:	304300ff 	andi	$3,$2,0xff
800035f0:	3c028001 	lui	$2,0x8001
800035f4:	2442c8b0 	addiu	$2,$2,-14160
800035f8:	a0430018 	sb	$3,24($2)
800035fc:	8fc2009c 	lw	$2,156($30)
80003600:	304200ff 	andi	$2,$2,0xff
80003604:	24420008 	addiu	$2,$2,8
80003608:	304300ff 	andi	$3,$2,0xff
8000360c:	3c028001 	lui	$2,0x8001
80003610:	2442c8b0 	addiu	$2,$2,-14160
80003614:	a0430019 	sb	$3,25($2)
80003618:	8fc2009c 	lw	$2,156($30)
8000361c:	24420008 	addiu	$2,$2,8
80003620:	00402825 	or	$5,$2,$0
80003624:	3c028001 	lui	$2,0x8001
80003628:	2444c8c4 	addiu	$4,$2,-14140
8000362c:	0c0003ac 	jal	80000eb0 <_Z19calculateIPChecksumPhj>
80003630:	00000000 	sll	$0,$0,0x0
80003634:	8fc300d0 	lw	$3,208($30)
80003638:	3c028000 	lui	$2,0x8000
8000363c:	00031880 	sll	$3,$3,0x2
80003640:	244242dc 	addiu	$2,$2,17116
80003644:	00621021 	addu	$2,$3,$2
80003648:	8c420000 	lw	$2,0($2)
8000364c:	00021602 	srl	$2,$2,0x18
80003650:	304300ff 	andi	$3,$2,0xff
80003654:	3c028001 	lui	$2,0x8001
80003658:	2442c8b0 	addiu	$2,$2,-14160
8000365c:	a043000f 	sb	$3,15($2)
80003660:	8fc300d0 	lw	$3,208($30)
80003664:	3c028000 	lui	$2,0x8000
80003668:	00031880 	sll	$3,$3,0x2
8000366c:	244242dc 	addiu	$2,$2,17116
80003670:	00621021 	addu	$2,$3,$2
80003674:	8c420000 	lw	$2,0($2)
80003678:	00021402 	srl	$2,$2,0x10
8000367c:	304300ff 	andi	$3,$2,0xff
80003680:	3c028001 	lui	$2,0x8001
80003684:	2442c8b0 	addiu	$2,$2,-14160
80003688:	a043000e 	sb	$3,14($2)
8000368c:	8fc300d0 	lw	$3,208($30)
80003690:	3c028000 	lui	$2,0x8000
80003694:	00031880 	sll	$3,$3,0x2
80003698:	244242dc 	addiu	$2,$2,17116
8000369c:	00621021 	addu	$2,$3,$2
800036a0:	8c420000 	lw	$2,0($2)
800036a4:	00021202 	srl	$2,$2,0x8
800036a8:	304300ff 	andi	$3,$2,0xff
800036ac:	3c028001 	lui	$2,0x8001
800036b0:	2442c8b0 	addiu	$2,$2,-14160
800036b4:	a043000d 	sb	$3,13($2)
800036b8:	8fc300d0 	lw	$3,208($30)
800036bc:	3c028000 	lui	$2,0x8000
800036c0:	00031880 	sll	$3,$3,0x2
800036c4:	244242dc 	addiu	$2,$2,17116
800036c8:	00621021 	addu	$2,$3,$2
800036cc:	8c420000 	lw	$2,0($2)
800036d0:	304300ff 	andi	$3,$2,0xff
800036d4:	3c028001 	lui	$2,0x8001
800036d8:	2442c8b0 	addiu	$2,$2,-14160
800036dc:	a043000c 	sb	$3,12($2)
800036e0:	8fc2009c 	lw	$2,156($30)
800036e4:	2442001c 	addiu	$2,$2,28
800036e8:	00402825 	or	$5,$2,$0
800036ec:	3c028001 	lui	$2,0x8001
800036f0:	2444c8b0 	addiu	$4,$2,-14160
800036f4:	0c000345 	jal	80000d14 <_Z18validateIPChecksumPhj>
800036f8:	00000000 	sll	$0,$0,0x0
800036fc:	8fc300d0 	lw	$3,208($30)
80003700:	8fc2009c 	lw	$2,156($30)
80003704:	2442001c 	addiu	$2,$2,28
80003708:	27c400c0 	addiu	$4,$30,192
8000370c:	00803825 	or	$7,$4,$0
80003710:	00403025 	or	$6,$2,$0
80003714:	3c028001 	lui	$2,0x8001
80003718:	2445c8b0 	addiu	$5,$2,-14160
8000371c:	00602025 	or	$4,$3,$0
80003720:	0c00026c 	jal	800009b0 <_Z16HAL_SendIPPacketiPhjS_>
80003724:	00000000 	sll	$0,$0,0x0
80003728:	1000fc94 	beqz	$0,8000297c <main+0x2b8>
8000372c:	00000000 	sll	$0,$0,0x0
80003730:	afc000e4 	sw	$0,228($30)
80003734:	afc00068 	sw	$0,104($30)
80003738:	8fc3027c 	lw	$3,636($30)
8000373c:	8fc20068 	lw	$2,104($30)
80003740:	0043102b 	sltu	$2,$2,$3
80003744:	10400121 	beqz	$2,80003bcc <main+0x1508>
80003748:	00000000 	sll	$0,$0,0x0
8000374c:	8fc20068 	lw	$2,104($30)
80003750:	00021100 	sll	$2,$2,0x4
80003754:	27c30030 	addiu	$3,$30,48
80003758:	00621021 	addu	$2,$3,$2
8000375c:	8c420254 	lw	$2,596($2)
80003760:	00402025 	or	$4,$2,$0
80003764:	0c000762 	jal	80001d88 <_Z5queryj>
80003768:	00000000 	sll	$0,$0,0x0
8000376c:	a3c20094 	sb	$2,148($30)
80003770:	8fc20068 	lw	$2,104($30)
80003774:	00021100 	sll	$2,$2,0x4
80003778:	27c30030 	addiu	$3,$30,48
8000377c:	00621021 	addu	$2,$3,$2
80003780:	8c420254 	lw	$2,596($2)
80003784:	afc20414 	sw	$2,1044($30)
80003788:	93c20094 	lbu	$2,148($30)
8000378c:	104000b0 	beqz	$2,80003a50 <main+0x138c>
80003790:	00000000 	sll	$0,$0,0x0
80003794:	3c028001 	lui	$2,0x8001
80003798:	8c42c090 	lw	$2,-16240($2)
8000379c:	3c038000 	lui	$3,0x8000
800037a0:	246342f0 	addiu	$3,$3,17136
800037a4:	00021140 	sll	$2,$2,0x5
800037a8:	00621021 	addu	$2,$3,$2
800037ac:	8c43000c 	lw	$3,12($2)
800037b0:	8fc20068 	lw	$2,104($30)
800037b4:	24420001 	addiu	$2,$2,1
800037b8:	00021100 	sll	$2,$2,0x4
800037bc:	27c40030 	addiu	$4,$30,48
800037c0:	00821021 	addu	$2,$4,$2
800037c4:	8c420250 	lw	$2,592($2)
800037c8:	24420001 	addiu	$2,$2,1
800037cc:	0043102b 	sltu	$2,$2,$3
800037d0:	1040003c 	beqz	$2,800038c4 <main+0x1200>
800037d4:	00000000 	sll	$0,$0,0x0
800037d8:	8fc60420 	lw	$6,1056($30)
800037dc:	8fc50424 	lw	$5,1060($30)
800037e0:	8fc40428 	lw	$4,1064($30)
800037e4:	8fc3042c 	lw	$3,1068($30)
800037e8:	8fc20430 	lw	$2,1072($30)
800037ec:	afa60010 	sw	$6,16($29)
800037f0:	afa50014 	sw	$5,20($29)
800037f4:	afa40018 	sw	$4,24($29)
800037f8:	afa3001c 	sw	$3,28($29)
800037fc:	afa20020 	sw	$2,32($29)
80003800:	8fc50414 	lw	$5,1044($30)
80003804:	8fc60418 	lw	$6,1048($30)
80003808:	8fc7041c 	lw	$7,1052($30)
8000380c:	00002025 	or	$4,$0,$0
80003810:	0c000410 	jal	80001040 <_Z6updateb17RoutingTableEntry>
80003814:	00000000 	sll	$0,$0,0x0
80003818:	8fc20068 	lw	$2,104($30)
8000381c:	24420001 	addiu	$2,$2,1
80003820:	00021100 	sll	$2,$2,0x4
80003824:	27c30030 	addiu	$3,$30,48
80003828:	00621021 	addu	$2,$3,$2
8000382c:	8c420250 	lw	$2,592($2)
80003830:	24420001 	addiu	$2,$2,1
80003834:	afc20420 	sw	$2,1056($30)
80003838:	8fc20068 	lw	$2,104($30)
8000383c:	00021100 	sll	$2,$2,0x4
80003840:	27c30030 	addiu	$3,$30,48
80003844:	00621021 	addu	$2,$3,$2
80003848:	8c420258 	lw	$2,600($2)
8000384c:	afc20424 	sw	$2,1060($30)
80003850:	8fc20068 	lw	$2,104($30)
80003854:	24420001 	addiu	$2,$2,1
80003858:	00021100 	sll	$2,$2,0x4
8000385c:	27c30030 	addiu	$3,$30,48
80003860:	00621021 	addu	$2,$3,$2
80003864:	8c42024c 	lw	$2,588($2)
80003868:	afc2041c 	sw	$2,1052($30)
8000386c:	8fc200d0 	lw	$2,208($30)
80003870:	afc20418 	sw	$2,1048($30)
80003874:	8fc20038 	lw	$2,56($30)
80003878:	afc20428 	sw	$2,1064($30)
8000387c:	8fc60420 	lw	$6,1056($30)
80003880:	8fc50424 	lw	$5,1060($30)
80003884:	8fc40428 	lw	$4,1064($30)
80003888:	8fc3042c 	lw	$3,1068($30)
8000388c:	8fc20430 	lw	$2,1072($30)
80003890:	afa60010 	sw	$6,16($29)
80003894:	afa50014 	sw	$5,20($29)
80003898:	afa40018 	sw	$4,24($29)
8000389c:	afa3001c 	sw	$3,28($29)
800038a0:	afa20020 	sw	$2,32($29)
800038a4:	8fc50414 	lw	$5,1044($30)
800038a8:	8fc60418 	lw	$6,1048($30)
800038ac:	8fc7041c 	lw	$7,1052($30)
800038b0:	24040001 	addiu	$4,$0,1
800038b4:	0c000410 	jal	80001040 <_Z6updateb17RoutingTableEntry>
800038b8:	00000000 	sll	$0,$0,0x0
800038bc:	100000be 	beqz	$0,80003bb8 <main+0x14f4>
800038c0:	00000000 	sll	$0,$0,0x0
800038c4:	3c028001 	lui	$2,0x8001
800038c8:	8c42c090 	lw	$2,-16240($2)
800038cc:	3c038000 	lui	$3,0x8000
800038d0:	246342f0 	addiu	$3,$3,17136
800038d4:	00021140 	sll	$2,$2,0x5
800038d8:	00621021 	addu	$2,$3,$2
800038dc:	8c420004 	lw	$2,4($2)
800038e0:	8fc300d0 	lw	$3,208($30)
800038e4:	14430050 	bne	$2,$3,80003a28 <main+0x1364>
800038e8:	00000000 	sll	$0,$0,0x0
800038ec:	3c028001 	lui	$2,0x8001
800038f0:	8c42c090 	lw	$2,-16240($2)
800038f4:	3c038000 	lui	$3,0x8000
800038f8:	246342f0 	addiu	$3,$3,17136
800038fc:	00021140 	sll	$2,$2,0x5
80003900:	00621021 	addu	$2,$3,$2
80003904:	8c43000c 	lw	$3,12($2)
80003908:	8fc20068 	lw	$2,104($30)
8000390c:	24420001 	addiu	$2,$2,1
80003910:	00021100 	sll	$2,$2,0x4
80003914:	27c40030 	addiu	$4,$30,48
80003918:	00821021 	addu	$2,$4,$2
8000391c:	8c420250 	lw	$2,592($2)
80003920:	24420001 	addiu	$2,$2,1
80003924:	10620040 	beq	$3,$2,80003a28 <main+0x1364>
80003928:	00000000 	sll	$0,$0,0x0
8000392c:	8fc60420 	lw	$6,1056($30)
80003930:	8fc50424 	lw	$5,1060($30)
80003934:	8fc40428 	lw	$4,1064($30)
80003938:	8fc3042c 	lw	$3,1068($30)
8000393c:	8fc20430 	lw	$2,1072($30)
80003940:	afa60010 	sw	$6,16($29)
80003944:	afa50014 	sw	$5,20($29)
80003948:	afa40018 	sw	$4,24($29)
8000394c:	afa3001c 	sw	$3,28($29)
80003950:	afa20020 	sw	$2,32($29)
80003954:	8fc50414 	lw	$5,1044($30)
80003958:	8fc60418 	lw	$6,1048($30)
8000395c:	8fc7041c 	lw	$7,1052($30)
80003960:	00002025 	or	$4,$0,$0
80003964:	0c000410 	jal	80001040 <_Z6updateb17RoutingTableEntry>
80003968:	00000000 	sll	$0,$0,0x0
8000396c:	8fc20068 	lw	$2,104($30)
80003970:	24420001 	addiu	$2,$2,1
80003974:	00021100 	sll	$2,$2,0x4
80003978:	27c30030 	addiu	$3,$30,48
8000397c:	00621021 	addu	$2,$3,$2
80003980:	8c420250 	lw	$2,592($2)
80003984:	24420001 	addiu	$2,$2,1
80003988:	afc20420 	sw	$2,1056($30)
8000398c:	8fc20068 	lw	$2,104($30)
80003990:	00021100 	sll	$2,$2,0x4
80003994:	27c30030 	addiu	$3,$30,48
80003998:	00621021 	addu	$2,$3,$2
8000399c:	8c420258 	lw	$2,600($2)
800039a0:	afc20424 	sw	$2,1060($30)
800039a4:	8fc20068 	lw	$2,104($30)
800039a8:	24420001 	addiu	$2,$2,1
800039ac:	00021100 	sll	$2,$2,0x4
800039b0:	27c30030 	addiu	$3,$30,48
800039b4:	00621021 	addu	$2,$3,$2
800039b8:	8c42024c 	lw	$2,588($2)
800039bc:	afc2041c 	sw	$2,1052($30)
800039c0:	8fc200d0 	lw	$2,208($30)
800039c4:	afc20418 	sw	$2,1048($30)
800039c8:	8fc20038 	lw	$2,56($30)
800039cc:	afc20428 	sw	$2,1064($30)
800039d0:	8fc20420 	lw	$2,1056($30)
800039d4:	2c420010 	sltiu	$2,$2,16
800039d8:	10400077 	beqz	$2,80003bb8 <main+0x14f4>
800039dc:	00000000 	sll	$0,$0,0x0
800039e0:	8fc60420 	lw	$6,1056($30)
800039e4:	8fc50424 	lw	$5,1060($30)
800039e8:	8fc40428 	lw	$4,1064($30)
800039ec:	8fc3042c 	lw	$3,1068($30)
800039f0:	8fc20430 	lw	$2,1072($30)
800039f4:	afa60010 	sw	$6,16($29)
800039f8:	afa50014 	sw	$5,20($29)
800039fc:	afa40018 	sw	$4,24($29)
80003a00:	afa3001c 	sw	$3,28($29)
80003a04:	afa20020 	sw	$2,32($29)
80003a08:	8fc50414 	lw	$5,1044($30)
80003a0c:	8fc60418 	lw	$6,1048($30)
80003a10:	8fc7041c 	lw	$7,1052($30)
80003a14:	24040001 	addiu	$4,$0,1
80003a18:	0c000410 	jal	80001040 <_Z6updateb17RoutingTableEntry>
80003a1c:	00000000 	sll	$0,$0,0x0
80003a20:	10000065 	beqz	$0,80003bb8 <main+0x14f4>
80003a24:	00000000 	sll	$0,$0,0x0
80003a28:	3c028001 	lui	$2,0x8001
80003a2c:	8c42c090 	lw	$2,-16240($2)
80003a30:	8fc30038 	lw	$3,56($30)
80003a34:	3c048000 	lui	$4,0x8000
80003a38:	248442f0 	addiu	$4,$4,17136
80003a3c:	00021140 	sll	$2,$2,0x5
80003a40:	00821021 	addu	$2,$4,$2
80003a44:	ac430014 	sw	$3,20($2)
80003a48:	1000005b 	beqz	$0,80003bb8 <main+0x14f4>
80003a4c:	00000000 	sll	$0,$0,0x0
80003a50:	8fc20068 	lw	$2,104($30)
80003a54:	24420001 	addiu	$2,$2,1
80003a58:	00021100 	sll	$2,$2,0x4
80003a5c:	27c30030 	addiu	$3,$30,48
80003a60:	00621021 	addu	$2,$3,$2
80003a64:	8c420250 	lw	$2,592($2)
80003a68:	24420001 	addiu	$2,$2,1
80003a6c:	afc20420 	sw	$2,1056($30)
80003a70:	8fc20420 	lw	$2,1056($30)
80003a74:	2c420010 	sltiu	$2,$2,16
80003a78:	1040004e 	beqz	$2,80003bb4 <main+0x14f0>
80003a7c:	00000000 	sll	$0,$0,0x0
80003a80:	8fc20068 	lw	$2,104($30)
80003a84:	00021100 	sll	$2,$2,0x4
80003a88:	27c30030 	addiu	$3,$30,48
80003a8c:	00621021 	addu	$2,$3,$2
80003a90:	8c420258 	lw	$2,600($2)
80003a94:	afc20424 	sw	$2,1060($30)
80003a98:	8fc20068 	lw	$2,104($30)
80003a9c:	24420001 	addiu	$2,$2,1
80003aa0:	00021100 	sll	$2,$2,0x4
80003aa4:	27c30030 	addiu	$3,$30,48
80003aa8:	00621021 	addu	$2,$3,$2
80003aac:	8c42024c 	lw	$2,588($2)
80003ab0:	afc2041c 	sw	$2,1052($30)
80003ab4:	8fc200d0 	lw	$2,208($30)
80003ab8:	afc20418 	sw	$2,1048($30)
80003abc:	8fc20038 	lw	$2,56($30)
80003ac0:	afc20428 	sw	$2,1064($30)
80003ac4:	8fc60420 	lw	$6,1056($30)
80003ac8:	8fc50424 	lw	$5,1060($30)
80003acc:	8fc40428 	lw	$4,1064($30)
80003ad0:	8fc3042c 	lw	$3,1068($30)
80003ad4:	8fc20430 	lw	$2,1072($30)
80003ad8:	afa60010 	sw	$6,16($29)
80003adc:	afa50014 	sw	$5,20($29)
80003ae0:	afa40018 	sw	$4,24($29)
80003ae4:	afa3001c 	sw	$3,28($29)
80003ae8:	afa20020 	sw	$2,32($29)
80003aec:	8fc50414 	lw	$5,1044($30)
80003af0:	8fc60418 	lw	$6,1048($30)
80003af4:	8fc7041c 	lw	$7,1052($30)
80003af8:	24040001 	addiu	$4,$0,1
80003afc:	0c000410 	jal	80001040 <_Z6updateb17RoutingTableEntry>
80003b00:	00000000 	sll	$0,$0,0x0
80003b04:	8fc400e4 	lw	$4,228($30)
80003b08:	8fc20068 	lw	$2,104($30)
80003b0c:	00021100 	sll	$2,$2,0x4
80003b10:	27c30030 	addiu	$3,$30,48
80003b14:	00621021 	addu	$2,$3,$2
80003b18:	8c430254 	lw	$3,596($2)
80003b1c:	00041100 	sll	$2,$4,0x4
80003b20:	27c40030 	addiu	$4,$30,48
80003b24:	00821021 	addu	$2,$4,$2
80003b28:	ac4300bc 	sw	$3,188($2)
80003b2c:	8fc400e4 	lw	$4,228($30)
80003b30:	8fc20068 	lw	$2,104($30)
80003b34:	00021100 	sll	$2,$2,0x4
80003b38:	27c30030 	addiu	$3,$30,48
80003b3c:	00621021 	addu	$2,$3,$2
80003b40:	8c430258 	lw	$3,600($2)
80003b44:	00041100 	sll	$2,$4,0x4
80003b48:	27c40030 	addiu	$4,$30,48
80003b4c:	00821021 	addu	$2,$4,$2
80003b50:	ac4300c0 	sw	$3,192($2)
80003b54:	8fc400e4 	lw	$4,228($30)
80003b58:	8fc20068 	lw	$2,104($30)
80003b5c:	24420001 	addiu	$2,$2,1
80003b60:	00021100 	sll	$2,$2,0x4
80003b64:	27c30030 	addiu	$3,$30,48
80003b68:	00621021 	addu	$2,$3,$2
80003b6c:	8c43024c 	lw	$3,588($2)
80003b70:	24820001 	addiu	$2,$4,1
80003b74:	00021100 	sll	$2,$2,0x4
80003b78:	27c40030 	addiu	$4,$30,48
80003b7c:	00821021 	addu	$2,$4,$2
80003b80:	ac4300b4 	sw	$3,180($2)
80003b84:	8fc200e4 	lw	$2,228($30)
80003b88:	8fc30420 	lw	$3,1056($30)
80003b8c:	24420001 	addiu	$2,$2,1
80003b90:	00021100 	sll	$2,$2,0x4
80003b94:	27c40030 	addiu	$4,$30,48
80003b98:	00821021 	addu	$2,$4,$2
80003b9c:	ac4300b8 	sw	$3,184($2)
80003ba0:	8fc200e4 	lw	$2,228($30)
80003ba4:	24420001 	addiu	$2,$2,1
80003ba8:	afc200e4 	sw	$2,228($30)
80003bac:	10000002 	beqz	$0,80003bb8 <main+0x14f4>
80003bb0:	00000000 	sll	$0,$0,0x0
80003bb4:	00000000 	sll	$0,$0,0x0
80003bb8:	8fc20068 	lw	$2,104($30)
80003bbc:	24420001 	addiu	$2,$2,1
80003bc0:	afc20068 	sw	$2,104($30)
80003bc4:	1000fedc 	beqz	$0,80003738 <main+0x1074>
80003bc8:	00000000 	sll	$0,$0,0x0
80003bcc:	24020002 	addiu	$2,$0,2
80003bd0:	a3c200e8 	sb	$2,232($30)
80003bd4:	8fc200e4 	lw	$2,228($30)
80003bd8:	1040fb68 	beqz	$2,8000297c <main+0x2b8>
80003bdc:	00000000 	sll	$0,$0,0x0
80003be0:	27c300e4 	addiu	$3,$30,228
80003be4:	3c028001 	lui	$2,0x8001
80003be8:	2445c8cc 	addiu	$5,$2,-14132
80003bec:	00602025 	or	$4,$3,$0
80003bf0:	0c000899 	jal	80002264 <_Z8assemblePK9RipPacketPh>
80003bf4:	00000000 	sll	$0,$0,0x0
80003bf8:	afc20098 	sw	$2,152($30)
80003bfc:	3c028001 	lui	$2,0x8001
80003c00:	24030045 	addiu	$3,$0,69
80003c04:	a043c8b0 	sb	$3,-14160($2)
80003c08:	3c028001 	lui	$2,0x8001
80003c0c:	2442c8b0 	addiu	$2,$2,-14160
80003c10:	2403ffc0 	addiu	$3,$0,-64
80003c14:	a0430001 	sb	$3,1($2)
80003c18:	8fc20098 	lw	$2,152($30)
80003c1c:	2442001c 	addiu	$2,$2,28
80003c20:	00021202 	srl	$2,$2,0x8
80003c24:	304300ff 	andi	$3,$2,0xff
80003c28:	3c028001 	lui	$2,0x8001
80003c2c:	2442c8b0 	addiu	$2,$2,-14160
80003c30:	a0430002 	sb	$3,2($2)
80003c34:	8fc20098 	lw	$2,152($30)
80003c38:	304200ff 	andi	$2,$2,0xff
80003c3c:	2442001c 	addiu	$2,$2,28
80003c40:	304300ff 	andi	$3,$2,0xff
80003c44:	3c028001 	lui	$2,0x8001
80003c48:	2442c8b0 	addiu	$2,$2,-14160
80003c4c:	a0430003 	sb	$3,3($2)
80003c50:	3c028001 	lui	$2,0x8001
80003c54:	2442c8b0 	addiu	$2,$2,-14160
80003c58:	24030040 	addiu	$3,$0,64
80003c5c:	a0430006 	sb	$3,6($2)
80003c60:	3c028001 	lui	$2,0x8001
80003c64:	2442c8b0 	addiu	$2,$2,-14160
80003c68:	a0400007 	sb	$0,7($2)
80003c6c:	3c028001 	lui	$2,0x8001
80003c70:	2442c8b0 	addiu	$2,$2,-14160
80003c74:	24030001 	addiu	$3,$0,1
80003c78:	a0430008 	sb	$3,8($2)
80003c7c:	3c028001 	lui	$2,0x8001
80003c80:	2442c8b0 	addiu	$2,$2,-14160
80003c84:	24030011 	addiu	$3,$0,17
80003c88:	a0430009 	sb	$3,9($2)
80003c8c:	3c028001 	lui	$2,0x8001
80003c90:	2442c8b0 	addiu	$2,$2,-14160
80003c94:	2403ffe0 	addiu	$3,$0,-32
80003c98:	a0430010 	sb	$3,16($2)
80003c9c:	3c028001 	lui	$2,0x8001
80003ca0:	2442c8b0 	addiu	$2,$2,-14160
80003ca4:	a0400011 	sb	$0,17($2)
80003ca8:	3c028001 	lui	$2,0x8001
80003cac:	2442c8b0 	addiu	$2,$2,-14160
80003cb0:	a0400012 	sb	$0,18($2)
80003cb4:	3c028001 	lui	$2,0x8001
80003cb8:	2442c8b0 	addiu	$2,$2,-14160
80003cbc:	24030009 	addiu	$3,$0,9
80003cc0:	a0430013 	sb	$3,19($2)
80003cc4:	3c028001 	lui	$2,0x8001
80003cc8:	2442c8b0 	addiu	$2,$2,-14160
80003ccc:	24030002 	addiu	$3,$0,2
80003cd0:	a0430014 	sb	$3,20($2)
80003cd4:	3c028001 	lui	$2,0x8001
80003cd8:	2442c8b0 	addiu	$2,$2,-14160
80003cdc:	24030008 	addiu	$3,$0,8
80003ce0:	a0430015 	sb	$3,21($2)
80003ce4:	3c028001 	lui	$2,0x8001
80003ce8:	2442c8b0 	addiu	$2,$2,-14160
80003cec:	24030002 	addiu	$3,$0,2
80003cf0:	a0430016 	sb	$3,22($2)
80003cf4:	3c028001 	lui	$2,0x8001
80003cf8:	2442c8b0 	addiu	$2,$2,-14160
80003cfc:	24030008 	addiu	$3,$0,8
80003d00:	a0430017 	sb	$3,23($2)
80003d04:	8fc20098 	lw	$2,152($30)
80003d08:	24420008 	addiu	$2,$2,8
80003d0c:	00021202 	srl	$2,$2,0x8
80003d10:	304300ff 	andi	$3,$2,0xff
80003d14:	3c028001 	lui	$2,0x8001
80003d18:	2442c8b0 	addiu	$2,$2,-14160
80003d1c:	a0430018 	sb	$3,24($2)
80003d20:	8fc20098 	lw	$2,152($30)
80003d24:	304200ff 	andi	$2,$2,0xff
80003d28:	24420008 	addiu	$2,$2,8
80003d2c:	304300ff 	andi	$3,$2,0xff
80003d30:	3c028001 	lui	$2,0x8001
80003d34:	2442c8b0 	addiu	$2,$2,-14160
80003d38:	a0430019 	sb	$3,25($2)
80003d3c:	8fc20098 	lw	$2,152($30)
80003d40:	24420008 	addiu	$2,$2,8
80003d44:	00402825 	or	$5,$2,$0
80003d48:	3c028001 	lui	$2,0x8001
80003d4c:	2444c8c4 	addiu	$4,$2,-14140
80003d50:	0c0003ac 	jal	80000eb0 <_Z19calculateIPChecksumPhj>
80003d54:	00000000 	sll	$0,$0,0x0
80003d58:	8fc200e4 	lw	$2,228($30)
80003d5c:	00003825 	or	$7,$0,$0
80003d60:	2406000a 	addiu	$6,$0,10
80003d64:	24050001 	addiu	$5,$0,1
80003d68:	00402025 	or	$4,$2,$0
80003d6c:	0c000135 	jal	800004d4 <_Z9printbaseliii>
80003d70:	00000000 	sll	$0,$0,0x0
80003d74:	3c028000 	lui	$2,0x8000
80003d78:	24443fb0 	addiu	$4,$2,16304
80003d7c:	0c000111 	jal	80000444 <_Z9putstringPKc>
80003d80:	00000000 	sll	$0,$0,0x0
80003d84:	3c028000 	lui	$2,0x8000
80003d88:	8c434008 	lw	$3,16392($2)
80003d8c:	afc300dc 	sw	$3,220($30)
80003d90:	24424008 	addiu	$2,$2,16392
80003d94:	94420004 	lhu	$2,4($2)
80003d98:	a7c200e0 	sh	$2,224($30)
80003d9c:	afc0006c 	sw	$0,108($30)
80003da0:	8fc2006c 	lw	$2,108($30)
80003da4:	28420004 	slti	$2,$2,4
80003da8:	1040faf4 	beqz	$2,8000297c <main+0x2b8>
80003dac:	00000000 	sll	$0,$0,0x0
80003db0:	3c028000 	lui	$2,0x8000
80003db4:	8fc3006c 	lw	$3,108($30)
80003db8:	00031880 	sll	$3,$3,0x2
80003dbc:	244242dc 	addiu	$2,$2,17116
80003dc0:	00621021 	addu	$2,$3,$2
80003dc4:	8c420000 	lw	$2,0($2)
80003dc8:	00021602 	srl	$2,$2,0x18
80003dcc:	304300ff 	andi	$3,$2,0xff
80003dd0:	3c028001 	lui	$2,0x8001
80003dd4:	2442c8b0 	addiu	$2,$2,-14160
80003dd8:	a043000f 	sb	$3,15($2)
80003ddc:	3c028000 	lui	$2,0x8000
80003de0:	8fc3006c 	lw	$3,108($30)
80003de4:	00031880 	sll	$3,$3,0x2
80003de8:	244242dc 	addiu	$2,$2,17116
80003dec:	00621021 	addu	$2,$3,$2
80003df0:	8c420000 	lw	$2,0($2)
80003df4:	00021402 	srl	$2,$2,0x10
80003df8:	304300ff 	andi	$3,$2,0xff
80003dfc:	3c028001 	lui	$2,0x8001
80003e00:	2442c8b0 	addiu	$2,$2,-14160
80003e04:	a043000e 	sb	$3,14($2)
80003e08:	3c028000 	lui	$2,0x8000
80003e0c:	8fc3006c 	lw	$3,108($30)
80003e10:	00031880 	sll	$3,$3,0x2
80003e14:	244242dc 	addiu	$2,$2,17116
80003e18:	00621021 	addu	$2,$3,$2
80003e1c:	8c420000 	lw	$2,0($2)
80003e20:	00021202 	srl	$2,$2,0x8
80003e24:	304300ff 	andi	$3,$2,0xff
80003e28:	3c028001 	lui	$2,0x8001
80003e2c:	2442c8b0 	addiu	$2,$2,-14160
80003e30:	a043000d 	sb	$3,13($2)
80003e34:	3c028000 	lui	$2,0x8000
80003e38:	8fc3006c 	lw	$3,108($30)
80003e3c:	00031880 	sll	$3,$3,0x2
80003e40:	244242dc 	addiu	$2,$2,17116
80003e44:	00621021 	addu	$2,$3,$2
80003e48:	8c420000 	lw	$2,0($2)
80003e4c:	304300ff 	andi	$3,$2,0xff
80003e50:	3c028001 	lui	$2,0x8001
80003e54:	2442c8b0 	addiu	$2,$2,-14160
80003e58:	a043000c 	sb	$3,12($2)
80003e5c:	8fc20098 	lw	$2,152($30)
80003e60:	2442001c 	addiu	$2,$2,28
80003e64:	00402825 	or	$5,$2,$0
80003e68:	3c028001 	lui	$2,0x8001
80003e6c:	2444c8b0 	addiu	$4,$2,-14160
80003e70:	0c000345 	jal	80000d14 <_Z18validateIPChecksumPhj>
80003e74:	00000000 	sll	$0,$0,0x0
80003e78:	8fc2006c 	lw	$2,108($30)
80003e7c:	24430001 	addiu	$3,$2,1
80003e80:	8fc20098 	lw	$2,152($30)
80003e84:	2442001c 	addiu	$2,$2,28
80003e88:	27c400dc 	addiu	$4,$30,220
80003e8c:	00803825 	or	$7,$4,$0
80003e90:	00403025 	or	$6,$2,$0
80003e94:	3c028001 	lui	$2,0x8001
80003e98:	2445c8b0 	addiu	$5,$2,-14160
80003e9c:	00602025 	or	$4,$3,$0
80003ea0:	0c00026c 	jal	800009b0 <_Z16HAL_SendIPPacketiPhjS_>
80003ea4:	00000000 	sll	$0,$0,0x0
80003ea8:	8fc2006c 	lw	$2,108($30)
80003eac:	24420001 	addiu	$2,$2,1
80003eb0:	afc2006c 	sw	$2,108($30)
80003eb4:	1000ffba 	beqz	$0,80003da0 <main+0x16dc>
80003eb8:	00000000 	sll	$0,$0,0x0
80003ebc:	00000000 	sll	$0,$0,0x0
80003ec0:	1000faae 	beqz	$0,8000297c <main+0x2b8>
80003ec4:	00000000 	sll	$0,$0,0x0
80003ec8:	00000000 	sll	$0,$0,0x0
80003ecc:	1000faab 	beqz	$0,8000297c <main+0x2b8>
80003ed0:	00000000 	sll	$0,$0,0x0
80003ed4:	03c0e825 	or	$29,$30,$0
80003ed8:	8fbf043c 	lw	$31,1084($29)
80003edc:	8fbe0438 	lw	$30,1080($29)
80003ee0:	27bd0440 	addiu	$29,$29,1088
80003ee4:	03e00008 	jr	$31
80003ee8:	00000000 	sll	$0,$0,0x0
80003eec:	00000000 	sll	$0,$0,0x0

Disassembly of section .rodata:

80003ef0 <.rodata>:
80003ef0:	746f670a 	jalx	81bd9c28 <output+0x1bcd378>
80003ef4:	70206120 	0x70206120
80003ef8:	656b6361 	0x656b6361
80003efc:	68202c74 	0x68202c74
80003f00:	6f747361 	0x6f747361
80003f04:	64616552 	0x64616552
80003f08:	0000003d 	0x3d
80003f0c:	0000000a 	movz	$0,$0,$0
80003f10:	6365720a 	0x6365720a
80003f14:	65766965 	0x65766965
80003f18:	656c2064 	0x656c2064
80003f1c:	6874676e 	0x6874676e
80003f20:	00000020 	add	$0,$0,$0
80003f24:	746e6573 	jalx	81b995cc <output+0x1b8cd1c>
80003f28:	206e6120 	addi	$14,$3,24864
80003f2c:	6b636170 	0x6b636170
80003f30:	000a7465 	0xa7465
80003f34:	65736e49 	0x65736e49
80003f38:	6e697472 	0x6e697472
80003f3c:	00002067 	0x2067
80003f40:	20504952 	addi	$16,$2,18770
80003f44:	72617453 	udi3	$19,$1,$14,0x11
80003f48:	0a646574 	j	899195d0 <output+0x990cd20>
80003f4c:	00000000 	sll	$0,$0,0x0
80003f50:	74696e49 	jalx	81a5b924 <output+0x1a4f074>
80003f54:	696c6169 	0x696c6169
80003f58:	676e697a 	0x676e697a
80003f5c:	756f7220 	jalx	85bdc880 <output+0x5bcffd0>
80003f60:	676e6974 	0x676e6974
80003f64:	62617420 	0x62617420
80003f68:	000a656c 	0xa656c
80003f6c:	65736e49 	0x65736e49
80003f70:	6f697472 	0x6f697472
80003f74:	6f64206e 	0x6f64206e
80003f78:	000a656e 	0xa656e
80003f7c:	74756f52 	jalx	81d5bd48 <output+0x1d4f498>
80003f80:	73207265 	0x73207265
80003f84:	3a657a69 	xori	$5,$19,0x7a69
80003f88:	00000020 	add	$0,$0,$0
80003f8c:	6c756d0a 	0x6c756d0a
80003f90:	61636974 	0x61636974
80003f94:	6e697473 	0x6e697473
80003f98:	6f722067 	0x6f722067
80003f9c:	6e697475 	0x6e697475
80003fa0:	61742067 	0x61742067
80003fa4:	20656c62 	addi	$5,$3,27746
80003fa8:	68746977 	0x68746977
80003fac:	00000020 	add	$0,$0,$0
80003fb0:	6c757220 	0x6c757220
80003fb4:	2e2e7365 	sltiu	$14,$17,29541
80003fb8:	00000a2e 	0xa2e
80003fbc:	61766e49 	0x61766e49
80003fc0:	2064696c 	addi	$4,$3,26988
80003fc4:	43205049 	c0	0x1205049
80003fc8:	6b636568 	0x6b636568
80003fcc:	0a6d7573 	j	89b5d5cc <output+0x9b50d1c>
80003fd0:	00000000 	sll	$0,$0,0x0
80003fd4:	776f770a 	jalx	8dbddc28 <output+0xdbd1378>
80003fd8:	27746920 	addiu	$20,$27,26912
80003fdc:	20612073 	addi	$1,$3,8307
80003fe0:	6b636170 	0x6b636170
80003fe4:	66207465 	0x66207465
80003fe8:	7420726f 	jalx	8081c9bc <output+0x81010c>
80003fec:	72206568 	0x72206568
80003ff0:	6574756f 	0x6574756f
80003ff4:	00000a72 	tlt	$0,$0,0x29
80003ff8:	676d6f0a 	0x676d6f0a
80003ffc:	27746920 	addiu	$20,$27,26912
80004000:	69722073 	0x69722073
80004004:	00000a70 	tge	$0,$0,0x29
80004008:	005e0001 	0x5e0001
8000400c:	00000900 	sll	$1,$0,0x4

Disassembly of section .reginfo:

80004010 <.reginfo>:
80004010:	e00001fc 	sc	$0,508($0)
	...

Disassembly of section .MIPS.abiflags:

80004028 <.MIPS.abiflags>:
80004028:	02200000 	0x2200000
8000402c:	01000101 	0x1000101
	...
80004038:	00000001 	movf	$0,$0,$fcc0
8000403c:	00000000 	sll	$0,$0,0x0

Disassembly of section .eh_frame:

80004040 <.eh_frame>:
80004040:	00000010 	mfhi	$0
80004044:	00000000 	sll	$0,$0,0x0
80004048:	00527a01 	0x527a01
8000404c:	011f7c01 	0x11f7c01
80004050:	001d0d0b 	0x1d0d0b
80004054:	00000020 	add	$0,$0,$0
80004058:	00000018 	mult	$0,$0
8000405c:	80000390 	lb	$0,912($0)
80004060:	00000070 	tge	$0,$0,0x1
80004064:	180e4400 	0x180e4400
80004068:	44019e44 	0x44019e44
8000406c:	54021e0d 	bnel	$0,$2,8000b8a4 <routersList+0x75b4>
80004070:	de481d0d 	ldc3	$8,7437($18)
80004074:	0000000e 	0xe
80004078:	00000020 	add	$0,$0,$0
8000407c:	0000003c 	0x3c
80004080:	80000400 	lb	$0,1024($0)
80004084:	00000044 	0x44
80004088:	200e4400 	addi	$14,$0,17408
8000408c:	9e019f48 	0x9e019f48
80004090:	1e0d4402 	0x1e0d4402
80004094:	4c1d0d60 	madd.s	$f21,$f0,$f1,$f29
80004098:	000edfde 	0xedfde
8000409c:	00000024 	and	$0,$0,$0
800040a0:	00000060 	0x60
800040a4:	80000444 	lb	$0,1092($0)
800040a8:	00000090 	0x90
800040ac:	280e4400 	slti	$14,$0,17408
800040b0:	9e019f48 	0x9e019f48
800040b4:	1e0d4402 	0x1e0d4402
800040b8:	1d0d6c02 	0x1d0d6c02
800040bc:	0edfde4c 	jal	8b7f7930 <output+0xb7eb080>
800040c0:	00000000 	sll	$0,$0,0x0
800040c4:	00000024 	and	$0,$0,$0
800040c8:	00000088 	0x88
800040cc:	800004d4 	lb	$0,1236($0)
800040d0:	0000019c 	0x19c
800040d4:	700e4400 	0x700e4400
800040d8:	9e019f48 	0x9e019f48
800040dc:	1e0d4402 	0x1e0d4402
800040e0:	0d017803 	jal	8405e00c <output+0x405175c>
800040e4:	dfde4c1d 	ldc3	$30,19485($30)
800040e8:	0000000e 	0xe
800040ec:	00000020 	add	$0,$0,$0
800040f0:	000000b0 	tge	$0,$0,0x2
800040f4:	80000670 	lb	$0,1648($0)
800040f8:	00000084 	0x84
800040fc:	180e4400 	0x180e4400
80004100:	44019e44 	0x44019e44
80004104:	68021e0d 	0x68021e0d
80004108:	de481d0d 	ldc3	$8,7437($18)
8000410c:	0000000e 	0xe
80004110:	00000024 	and	$0,$0,$0
80004114:	000000d4 	0xd4
80004118:	800006f4 	lb	$0,1780($0)
8000411c:	000002bc 	0x2bc
80004120:	480e4400 	0x480e4400
80004124:	9e019f48 	0x9e019f48
80004128:	1e0d4402 	0x1e0d4402
8000412c:	0d029803 	jal	840a600c <output+0x409975c>
80004130:	dfde4c1d 	ldc3	$30,19485($30)
80004134:	0000000e 	0xe
80004138:	00000024 	and	$0,$0,$0
8000413c:	000000fc 	0xfc
80004140:	800009b0 	lb	$0,2480($0)
80004144:	00000238 	0x238
80004148:	400e4400 	0x400e4400
8000414c:	9e019f48 	0x9e019f48
80004150:	1e0d4402 	0x1e0d4402
80004154:	0d021403 	jal	8408500c <output+0x407875c>
80004158:	dfde4c1d 	ldc3	$30,19485($30)
8000415c:	0000000e 	0xe
80004160:	00000020 	add	$0,$0,$0
80004164:	00000124 	0x124
80004168:	80000be8 	lb	$0,3048($0)
8000416c:	0000012c 	0x12c
80004170:	300e4400 	andi	$14,$0,0x4400
80004174:	44019e44 	0x44019e44
80004178:	10031e0d 	beq	$0,$3,8000b9b0 <routersList+0x76c0>
8000417c:	481d0d01 	0x481d0d01
80004180:	00000ede 	0xede
80004184:	00000020 	add	$0,$0,$0
80004188:	00000148 	0x148
8000418c:	80000d14 	lb	$0,3348($0)
80004190:	0000019c 	0x19c
80004194:	300e4400 	andi	$14,$0,0x4400
80004198:	44019e44 	0x44019e44
8000419c:	80031e0d 	lb	$3,7693($0)
800041a0:	481d0d01 	0x481d0d01
800041a4:	00000ede 	0xede
800041a8:	00000020 	add	$0,$0,$0
800041ac:	0000016c 	0x16c
800041b0:	80000eb0 	lb	$0,3760($0)
800041b4:	00000190 	0x190
800041b8:	300e4400 	andi	$14,$0,0x4400
800041bc:	44019e44 	0x44019e44
800041c0:	74031e0d 	jalx	800c7834 <output+0xbaf84>
800041c4:	481d0d01 	0x481d0d01
800041c8:	00000ede 	0xede
800041cc:	00000024 	and	$0,$0,$0
800041d0:	00000190 	0x190
800041d4:	80001040 	lb	$0,4160($0)
800041d8:	00000d48 	0xd48
800041dc:	500e4400 	beql	$0,$14,800151e0 <output+0x8930>
800041e0:	9e019f48 	0x9e019f48
800041e4:	1e0d4402 	0x1e0d4402
800041e8:	0d0d2403 	jal	8434900c <output+0x433c75c>
800041ec:	dfde4c1d 	ldc3	$30,19485($30)
800041f0:	0000000e 	0xe
800041f4:	00000020 	add	$0,$0,$0
800041f8:	000001b8 	0x1b8
800041fc:	80001d88 	lb	$0,7560($0)
80004200:	00000154 	0x154
80004204:	280e4400 	slti	$14,$0,17408
80004208:	44019e44 	0x44019e44
8000420c:	38031e0d 	xori	$3,$0,0x1e0d
80004210:	481d0d01 	0x481d0d01
80004214:	00000ede 	0xede
80004218:	00000020 	add	$0,$0,$0
8000421c:	000001dc 	0x1dc
80004220:	80001edc 	lb	$0,7900($0)
80004224:	00000388 	0x388
80004228:	280e4400 	slti	$14,$0,17408
8000422c:	44019e44 	0x44019e44
80004230:	6c031e0d 	0x6c031e0d
80004234:	481d0d03 	0x481d0d03
80004238:	00000ede 	0xede
8000423c:	00000020 	add	$0,$0,$0
80004240:	00000200 	sll	$0,$0,0x8
80004244:	80002264 	lb	$0,8804($0)
80004248:	00000460 	0x460
8000424c:	200e4400 	addi	$14,$0,17408
80004250:	44019e44 	0x44019e44
80004254:	44031e0d 	0x44031e0d
80004258:	481d0d04 	0x481d0d04
8000425c:	00000ede 	0xede
80004260:	00000024 	and	$0,$0,$0
80004264:	00000224 	0x224
80004268:	800026c4 	lb	$0,9924($0)
8000426c:	00001828 	0x1828
80004270:	c00e4400 	ll	$14,17408($0)
80004274:	019f4808 	0x19f4808
80004278:	0d44029e 	jal	85100a78 <output+0x50f41c8>
8000427c:	1804031e 	0x1804031e
80004280:	de4c1d0d 	ldc3	$12,7437($18)
80004284:	00000edf 	0xedf

Disassembly of section .data:

80004290 <interface_mac>:
80004290:	abefcd00 	swl	$15,-13056($31)
80004294:	0000efcd 	break	0x0,0x3bf

80004298 <cnt>:
80004298:	00000001 	movf	$0,$0,$fcc0

8000429c <bufferu>:
8000429c:	ffffffff 	sdc3	$31,-1($31)
800042a0:	cc00ffff 	pref	0x0,-1($0)
800042a4:	efcdabef 	swc3	$13,-21521($30)
800042a8:	02000081 	0x2000081
800042ac:	01000608 	0x1000608
800042b0:	04060008 	0x4060008
800042b4:	cc000100 	pref	0x0,256($0)
800042b8:	efcdabef 	swc3	$13,-21521($30)
800042bc:	0101a00a 	movz	$20,$8,$1
800042c0:	00000000 	sll	$0,$0,0x0
800042c4:	00aa0000 	0xaa0000
800042c8:	00000202 	srl	$0,$0,0x8
	...

800042dc <addrs>:
800042dc:	0101000a 	movz	$0,$8,$1
800042e0:	0102000a 	movz	$0,$8,$2
800042e4:	0103000a 	movz	$0,$8,$3
800042e8:	0104000a 	movz	$0,$8,$4
800042ec:	00000000 	sll	$0,$0,0x0

Disassembly of section .bss:

800042f0 <routersList>:
	...

8000c090 <goal>:
8000c090:	00000000 	sll	$0,$0,0x0

8000c094 <bufferh>:
	...

8000c0b0 <packet>:
	...

8000c8b0 <output>:
	...

Disassembly of section .pdr:

00000000 <.pdr>:
   0:	80000390 	lb	$0,912($0)
   4:	40000000 	mfc0	$0,c0_index
   8:	fffffffc 	sdc3	$31,-4($31)
	...
  14:	00000018 	mult	$0,$0
  18:	0000001e 	0x1e
  1c:	0000001f 	0x1f
  20:	80000400 	lb	$0,1024($0)
  24:	c0000000 	ll	$0,0($0)
  28:	fffffffc 	sdc3	$31,-4($31)
	...
  34:	00000020 	add	$0,$0,$0
  38:	0000001e 	0x1e
  3c:	0000001f 	0x1f
  40:	80000444 	lb	$0,1092($0)
  44:	c0000000 	ll	$0,0($0)
  48:	fffffffc 	sdc3	$31,-4($31)
	...
  54:	00000028 	0x28
  58:	0000001e 	0x1e
  5c:	0000001f 	0x1f
  60:	800004d4 	lb	$0,1236($0)
  64:	c0000000 	ll	$0,0($0)
  68:	fffffffc 	sdc3	$31,-4($31)
	...
  74:	00000070 	tge	$0,$0,0x1
  78:	0000001e 	0x1e
  7c:	0000001f 	0x1f
  80:	80000670 	lb	$0,1648($0)
  84:	40000000 	mfc0	$0,c0_index
  88:	fffffffc 	sdc3	$31,-4($31)
	...
  94:	00000018 	mult	$0,$0
  98:	0000001e 	0x1e
  9c:	0000001f 	0x1f
  a0:	800006f4 	lb	$0,1780($0)
  a4:	c0000000 	ll	$0,0($0)
  a8:	fffffffc 	sdc3	$31,-4($31)
	...
  b4:	00000048 	0x48
  b8:	0000001e 	0x1e
  bc:	0000001f 	0x1f
  c0:	800009b0 	lb	$0,2480($0)
  c4:	c0000000 	ll	$0,0($0)
  c8:	fffffffc 	sdc3	$31,-4($31)
	...
  d4:	00000040 	sll	$0,$0,0x1
  d8:	0000001e 	0x1e
  dc:	0000001f 	0x1f
  e0:	80000be8 	lb	$0,3048($0)
  e4:	40000000 	mfc0	$0,c0_index
  e8:	fffffffc 	sdc3	$31,-4($31)
	...
  f4:	00000030 	tge	$0,$0
  f8:	0000001e 	0x1e
  fc:	0000001f 	0x1f
 100:	80000d14 	lb	$0,3348($0)
 104:	40000000 	mfc0	$0,c0_index
 108:	fffffffc 	sdc3	$31,-4($31)
	...
 114:	00000030 	tge	$0,$0
 118:	0000001e 	0x1e
 11c:	0000001f 	0x1f
 120:	80000eb0 	lb	$0,3760($0)
 124:	40000000 	mfc0	$0,c0_index
 128:	fffffffc 	sdc3	$31,-4($31)
	...
 134:	00000030 	tge	$0,$0
 138:	0000001e 	0x1e
 13c:	0000001f 	0x1f
 140:	80001040 	lb	$0,4160($0)
 144:	c0000000 	ll	$0,0($0)
 148:	fffffffc 	sdc3	$31,-4($31)
	...
 154:	00000050 	0x50
 158:	0000001e 	0x1e
 15c:	0000001f 	0x1f
 160:	80001d88 	lb	$0,7560($0)
 164:	40000000 	mfc0	$0,c0_index
 168:	fffffffc 	sdc3	$31,-4($31)
	...
 174:	00000028 	0x28
 178:	0000001e 	0x1e
 17c:	0000001f 	0x1f
 180:	80001edc 	lb	$0,7900($0)
 184:	40000000 	mfc0	$0,c0_index
 188:	fffffffc 	sdc3	$31,-4($31)
	...
 194:	00000028 	0x28
 198:	0000001e 	0x1e
 19c:	0000001f 	0x1f
 1a0:	80002264 	lb	$0,8804($0)
 1a4:	40000000 	mfc0	$0,c0_index
 1a8:	fffffffc 	sdc3	$31,-4($31)
	...
 1b4:	00000020 	add	$0,$0,$0
 1b8:	0000001e 	0x1e
 1bc:	0000001f 	0x1f
 1c0:	800026c4 	lb	$0,9924($0)
 1c4:	c0000000 	ll	$0,0($0)
 1c8:	fffffffc 	sdc3	$31,-4($31)
	...
 1d4:	00000440 	sll	$0,$0,0x11
 1d8:	0000001e 	0x1e
 1dc:	0000001f 	0x1f

Disassembly of section .comment:

00000000 <.comment>:
   0:	3a434347 	xori	$3,$18,0x4347
   4:	62552820 	0x62552820
   8:	75746e75 	jalx	5d1b9d4 <__start-0x7a2e462c>
   c:	342e3720 	ori	$14,$1,0x3720
  10:	312d302e 	andi	$13,$9,0x302e
  14:	6e756275 	0x6e756275
  18:	7e317574 	0x7e317574
  1c:	302e3831 	andi	$14,$1,0x3831
  20:	29312e34 	slti	$17,$9,11828
  24:	342e3720 	ori	$14,$1,0x3720
  28:	Address 0x0000000000000028 is out of bounds.


Disassembly of section .gnu.attributes:

00000000 <.gnu.attributes>:
   0:	00000f41 	0xf41
   4:	756e6700 	jalx	5b99c00 <__start-0x7a466400>
   8:	00070100 	sll	$0,$7,0x4
   c:	01040000 	0x1040000
