
test_write.o:     file format elf32-tradlittlemips


Disassembly of section .text:

80000000 <main>:
80000000:	27bdffd8 	addiu	$29,$29,-40
80000004:	afbe0024 	sw	$30,36($29)
80000008:	03a0f025 	or	$30,$29,$0
8000000c:	3c02bc00 	lui	$2,0xbc00
80000010:	344201ff 	ori	$2,$2,0x1ff
80000014:	afc20010 	sw	$2,16($30)
80000018:	8fc20010 	lw	$2,16($30)
8000001c:	90420000 	lbu	$2,0($2)
80000020:	304200ff 	andi	$2,$2,0xff
80000024:	384200ff 	xori	$2,$2,0xff
80000028:	2c420001 	sltiu	$2,$2,1
8000002c:	304200ff 	andi	$2,$2,0xff
80000030:	10400003 	beqz	$2,80000040 <main+0x40>
80000034:	00000000 	sll	$0,$0,0x0
80000038:	1000fff7 	beqz	$0,80000018 <main+0x18>
8000003c:	00000000 	sll	$0,$0,0x0
80000040:	3c02bc00 	lui	$2,0xbc00
80000044:	344201fc 	ori	$2,$2,0x1fc
80000048:	afc20014 	sw	$2,20($30)
8000004c:	3c02bc00 	lui	$2,0xbc00
80000050:	344201fd 	ori	$2,$2,0x1fd
80000054:	afc20018 	sw	$2,24($30)
80000058:	3c02bc00 	lui	$2,0xbc00
8000005c:	344201fe 	ori	$2,$2,0x1fe
80000060:	afc2001c 	sw	$2,28($30)
80000064:	8fc20014 	lw	$2,20($30)
80000068:	2403002a 	addiu	$3,$0,42
8000006c:	a0430000 	sb	$3,0($2)
80000070:	8fc20018 	lw	$2,24($30)
80000074:	a0400000 	sb	$0,0($2)
80000078:	8fc2001c 	lw	$2,28($30)
8000007c:	a0400000 	sb	$0,0($2)
80000080:	3c02bc00 	lui	$2,0xbc00
80000084:	afc20008 	sw	$2,8($30)
80000088:	a3c0000c 	sb	$0,12($30)
8000008c:	93c2000c 	lbu	$2,12($30)
80000090:	2c42002a 	sltiu	$2,$2,42
80000094:	10400010 	beqz	$2,800000d8 <main+0xd8>
80000098:	00000000 	sll	$0,$0,0x0
8000009c:	93c3000c 	lbu	$3,12($30)
800000a0:	3c028000 	lui	$2,0x8000
800000a4:	24420150 	addiu	$2,$2,336
800000a8:	00621021 	addu	$2,$3,$2
800000ac:	90430000 	lbu	$3,0($2)
800000b0:	8fc20008 	lw	$2,8($30)
800000b4:	a0430000 	sb	$3,0($2)
800000b8:	93c2000c 	lbu	$2,12($30)
800000bc:	24420001 	addiu	$2,$2,1
800000c0:	a3c2000c 	sb	$2,12($30)
800000c4:	8fc20008 	lw	$2,8($30)
800000c8:	24420001 	addiu	$2,$2,1
800000cc:	afc20008 	sw	$2,8($30)
800000d0:	1000ffee 	beqz	$0,8000008c <main+0x8c>
800000d4:	00000000 	sll	$0,$0,0x0
800000d8:	8fc20010 	lw	$2,16($30)
800000dc:	2403ffff 	addiu	$3,$0,-1
800000e0:	a0430000 	sb	$3,0($2)
800000e4:	1000ffcc 	beqz	$0,80000018 <main+0x18>
800000e8:	00000000 	sll	$0,$0,0x0
800000ec:	00000000 	sll	$0,$0,0x0

Disassembly of section .reginfo:

800000f0 <.reginfo>:
800000f0:	6000000c 	0x6000000c
	...

Disassembly of section .MIPS.abiflags:

80000108 <.MIPS.abiflags>:
80000108:	02200000 	0x2200000
8000010c:	05000101 	bltz	$8,80000514 <packet+0x3c4>
80000110:	00000000 	sll	$0,$0,0x0
	...

Disassembly of section .eh_frame:

80000120 <.eh_frame>:
80000120:	00000010 	mfhi	$0
80000124:	00000000 	sll	$0,$0,0x0
80000128:	00527a01 	0x527a01
8000012c:	011f7c01 	0x11f7c01
80000130:	001d0d0b 	0x1d0d0b
80000134:	00000018 	mult	$0,$0
80000138:	00000018 	mult	$0,$0
8000013c:	80000000 	lb	$0,0($0)
80000140:	000000ec 	0xec
80000144:	280e4400 	slti	$14,$0,17408
80000148:	44019e44 	0x44019e44
8000014c:	00001e0d 	break	0x0,0x78

Disassembly of section .data:

80000150 <packet>:
80000150:	3f270080 	0x3f270080
80000154:	cd009f73 	pref	0x0,-24717($8)
80000158:	efcdabef 	swc3	$13,-21521($30)
8000015c:	01000080 	0x1000080
80000160:	19540045 	0x19540045
80000164:	40004061 	0x40004061
80000168:	0a450a01 	j	89142804 <packet+0x91426b4>
8000016c:	0a020100 	j	88080400 <packet+0x80802b0>
80000170:	08020200 	j	80080800 <packet+0x806b0>
80000174:	069dca00 	0x69dca00
80000178:	00070083 	sra	$0,$7,0x2
8000017c:	00000000 	sll	$0,$0,0x0

Disassembly of section .pdr:

00000000 <.pdr>:
   0:	80000000 	lb	$0,0($0)
   4:	40000000 	mfc0	$0,c0_index
   8:	fffffffc 	sdc3	$31,-4($31)
	...
  14:	00000028 	0x28
  18:	0000001e 	0x1e
  1c:	0000001f 	0x1f

Disassembly of section .comment:

00000000 <.comment>:
   0:	3a434347 	xori	$3,$18,0x4347
   4:	62552820 	0x62552820
   8:	75746e75 	jalx	5d1b9d4 <main-0x7a2e462c>
   c:	342e3720 	ori	$14,$1,0x3720
  10:	312d302e 	andi	$13,$9,0x302e
  14:	6e756275 	0x6e756275
  18:	7e317574 	0x7e317574
  1c:	302e3831 	andi	$14,$1,0x3831
  20:	29312e34 	slti	$17,$9,11828
  24:	342e3720 	ori	$14,$1,0x3720
  28:	Address 0x0000000000000028 is out of bounds.


Disassembly of section .gnu.attributes:

00000000 <.gnu.attributes>:
   0:	00000f41 	0xf41
   4:	756e6700 	jalx	5b99c00 <main-0x7a466400>
   8:	00070100 	sll	$0,$7,0x4
   c:	05040000 	0x5040000
