
test_write.o:     file format elf32-tradlittlemips


Disassembly of section .text:

80000000 <__start>:
80000000:	3c1d8800 	lui	$29,0x8800
80000004:	0411019a 	bgezal	$0,80000670 <main>
80000008:	00000000 	sll	$0,$0,0x0

8000000c <boot>:
8000000c:	3c158000 	lui	$21,0x8000
80000010:	02a00008 	jr	$21
80000014:	00000000 	sll	$0,$0,0x0
	...

80000380 <end>:
80000380:	1000ffff 	beqz	$0,80000380 <end>
80000384:	00000000 	sll	$0,$0,0x0
	...

80000390 <_Z12write_serialh>:
80000390:	27bdffe8 	addiu	$29,$29,-24
80000394:	afbe0014 	sw	$30,20($29)
80000398:	03a0f025 	or	$30,$29,$0
8000039c:	00801025 	or	$2,$4,$0
800003a0:	a3c20018 	sb	$2,24($30)
800003a4:	3c02bfd0 	lui	$2,0xbfd0
800003a8:	344203fc 	ori	$2,$2,0x3fc
800003ac:	afc20008 	sw	$2,8($30)
800003b0:	8fc20008 	lw	$2,8($30)
800003b4:	90420000 	lbu	$2,0($2)
800003b8:	30420001 	andi	$2,$2,0x1
800003bc:	14400003 	bnez	$2,800003cc <_Z12write_serialh+0x3c>
800003c0:	00000000 	sll	$0,$0,0x0
800003c4:	1000fff7 	beqz	$0,800003a4 <_Z12write_serialh+0x14>
800003c8:	00000000 	sll	$0,$0,0x0
800003cc:	00000000 	sll	$0,$0,0x0
800003d0:	3c02bfd0 	lui	$2,0xbfd0
800003d4:	344203f8 	ori	$2,$2,0x3f8
800003d8:	afc2000c 	sw	$2,12($30)
800003dc:	8fc2000c 	lw	$2,12($30)
800003e0:	93c30018 	lbu	$3,24($30)
800003e4:	a0430000 	sb	$3,0($2)
800003e8:	00000000 	sll	$0,$0,0x0
800003ec:	03c0e825 	or	$29,$30,$0
800003f0:	8fbe0014 	lw	$30,20($29)
800003f4:	27bd0018 	addiu	$29,$29,24
800003f8:	03e00008 	jr	$31
800003fc:	00000000 	sll	$0,$0,0x0

80000400 <_Z7putchari>:
80000400:	27bdffe0 	addiu	$29,$29,-32
80000404:	afbf001c 	sw	$31,28($29)
80000408:	afbe0018 	sw	$30,24($29)
8000040c:	03a0f025 	or	$30,$29,$0
80000410:	afc40020 	sw	$4,32($30)
80000414:	8fc20020 	lw	$2,32($30)
80000418:	304200ff 	andi	$2,$2,0xff
8000041c:	00402025 	or	$4,$2,$0
80000420:	0c0000e4 	jal	80000390 <_Z12write_serialh>
80000424:	00000000 	sll	$0,$0,0x0
80000428:	8fc20020 	lw	$2,32($30)
8000042c:	03c0e825 	or	$29,$30,$0
80000430:	8fbf001c 	lw	$31,28($29)
80000434:	8fbe0018 	lw	$30,24($29)
80000438:	27bd0020 	addiu	$29,$29,32
8000043c:	03e00008 	jr	$31
80000440:	00000000 	sll	$0,$0,0x0

80000444 <_Z9putstringPKc>:
80000444:	27bdffd8 	addiu	$29,$29,-40
80000448:	afbf0024 	sw	$31,36($29)
8000044c:	afbe0020 	sw	$30,32($29)
80000450:	03a0f025 	or	$30,$29,$0
80000454:	afc40028 	sw	$4,40($30)
80000458:	8fc20028 	lw	$2,40($30)
8000045c:	90420000 	lbu	$2,0($2)
80000460:	a3c20018 	sb	$2,24($30)
80000464:	83c20018 	lb	$2,24($30)
80000468:	0002102b 	sltu	$2,$0,$2
8000046c:	304200ff 	andi	$2,$2,0xff
80000470:	10400011 	beqz	$2,800004b8 <_Z9putstringPKc+0x74>
80000474:	00000000 	sll	$0,$0,0x0
80000478:	83c30018 	lb	$3,24($30)
8000047c:	2402000a 	addiu	$2,$0,10
80000480:	14620004 	bne	$3,$2,80000494 <_Z9putstringPKc+0x50>
80000484:	00000000 	sll	$0,$0,0x0
80000488:	2404000d 	addiu	$4,$0,13
8000048c:	0c000100 	jal	80000400 <_Z7putchari>
80000490:	00000000 	sll	$0,$0,0x0
80000494:	83c20018 	lb	$2,24($30)
80000498:	00402025 	or	$4,$2,$0
8000049c:	0c000100 	jal	80000400 <_Z7putchari>
800004a0:	00000000 	sll	$0,$0,0x0
800004a4:	8fc20028 	lw	$2,40($30)
800004a8:	24420001 	addiu	$2,$2,1
800004ac:	afc20028 	sw	$2,40($30)
800004b0:	1000ffe9 	beqz	$0,80000458 <_Z9putstringPKc+0x14>
800004b4:	00000000 	sll	$0,$0,0x0
800004b8:	00001025 	or	$2,$0,$0
800004bc:	03c0e825 	or	$29,$30,$0
800004c0:	8fbf0024 	lw	$31,36($29)
800004c4:	8fbe0020 	lw	$30,32($29)
800004c8:	27bd0028 	addiu	$29,$29,40
800004cc:	03e00008 	jr	$31
800004d0:	00000000 	sll	$0,$0,0x0

800004d4 <_Z9printbaseliii>:
800004d4:	27bdff90 	addiu	$29,$29,-112
800004d8:	afbf006c 	sw	$31,108($29)
800004dc:	afbe0068 	sw	$30,104($29)
800004e0:	03a0f025 	or	$30,$29,$0
800004e4:	afc40070 	sw	$4,112($30)
800004e8:	afc50074 	sw	$5,116($30)
800004ec:	afc60078 	sw	$6,120($30)
800004f0:	afc7007c 	sw	$7,124($30)
800004f4:	8fc2007c 	lw	$2,124($30)
800004f8:	1040000c 	beqz	$2,8000052c <_Z9printbaseliii+0x58>
800004fc:	00000000 	sll	$0,$0,0x0
80000500:	8fc20070 	lw	$2,112($30)
80000504:	04410009 	bgez	$2,8000052c <_Z9printbaseliii+0x58>
80000508:	00000000 	sll	$0,$0,0x0
8000050c:	8fc20070 	lw	$2,112($30)
80000510:	00021023 	negu	$2,$2
80000514:	afc2001c 	sw	$2,28($30)
80000518:	2404002d 	addiu	$4,$0,45
8000051c:	0c000100 	jal	80000400 <_Z7putchari>
80000520:	00000000 	sll	$0,$0,0x0
80000524:	10000003 	beqz	$0,80000534 <_Z9printbaseliii+0x60>
80000528:	00000000 	sll	$0,$0,0x0
8000052c:	8fc20070 	lw	$2,112($30)
80000530:	afc2001c 	sw	$2,28($30)
80000534:	afc00024 	sw	$0,36($30)
80000538:	8fc2001c 	lw	$2,28($30)
8000053c:	10400018 	beqz	$2,800005a0 <_Z9printbaseliii+0xcc>
80000540:	00000000 	sll	$0,$0,0x0
80000544:	8fc20078 	lw	$2,120($30)
80000548:	8fc3001c 	lw	$3,28($30)
8000054c:	004001f4 	teq	$2,$0,0x7
80000550:	0062001b 	divu	$0,$3,$2
80000554:	00001010 	mfhi	$2
80000558:	00401825 	or	$3,$2,$0
8000055c:	8fc20024 	lw	$2,36($30)
80000560:	7c031c20 	seb	$3,$3
80000564:	27c40018 	addiu	$4,$30,24
80000568:	00821021 	addu	$2,$4,$2
8000056c:	a0430010 	sb	$3,16($2)
80000570:	8fc20078 	lw	$2,120($30)
80000574:	8fc3001c 	lw	$3,28($30)
80000578:	004001f4 	teq	$2,$0,0x7
8000057c:	0062001b 	divu	$0,$3,$2
80000580:	00001010 	mfhi	$2
80000584:	00001012 	mflo	$2
80000588:	afc2001c 	sw	$2,28($30)
8000058c:	8fc20024 	lw	$2,36($30)
80000590:	24420001 	addiu	$2,$2,1
80000594:	afc20024 	sw	$2,36($30)
80000598:	1000ffe7 	beqz	$0,80000538 <_Z9printbaseliii+0x64>
8000059c:	00000000 	sll	$0,$0,0x0
800005a0:	8fc30074 	lw	$3,116($30)
800005a4:	8fc20024 	lw	$2,36($30)
800005a8:	0043102a 	slt	$2,$2,$3
800005ac:	10400004 	beqz	$2,800005c0 <_Z9printbaseliii+0xec>
800005b0:	00000000 	sll	$0,$0,0x0
800005b4:	8fc20074 	lw	$2,116($30)
800005b8:	10000002 	beqz	$0,800005c4 <_Z9printbaseliii+0xf0>
800005bc:	00000000 	sll	$0,$0,0x0
800005c0:	8fc20024 	lw	$2,36($30)
800005c4:	afc20018 	sw	$2,24($30)
800005c8:	8fc20018 	lw	$2,24($30)
800005cc:	18400021 	blez	$2,80000654 <_Z9printbaseliii+0x180>
800005d0:	00000000 	sll	$0,$0,0x0
800005d4:	8fc20024 	lw	$2,36($30)
800005d8:	8fc30018 	lw	$3,24($30)
800005dc:	0043102a 	slt	$2,$2,$3
800005e0:	14400008 	bnez	$2,80000604 <_Z9printbaseliii+0x130>
800005e4:	00000000 	sll	$0,$0,0x0
800005e8:	8fc20018 	lw	$2,24($30)
800005ec:	2442ffff 	addiu	$2,$2,-1
800005f0:	27c30018 	addiu	$3,$30,24
800005f4:	00621021 	addu	$2,$3,$2
800005f8:	80420010 	lb	$2,16($2)
800005fc:	10000002 	beqz	$0,80000608 <_Z9printbaseliii+0x134>
80000600:	00000000 	sll	$0,$0,0x0
80000604:	00001025 	or	$2,$0,$0
80000608:	afc20020 	sw	$2,32($30)
8000060c:	8fc20020 	lw	$2,32($30)
80000610:	2842000a 	slti	$2,$2,10
80000614:	10400005 	beqz	$2,8000062c <_Z9printbaseliii+0x158>
80000618:	00000000 	sll	$0,$0,0x0
8000061c:	8fc20020 	lw	$2,32($30)
80000620:	24420030 	addiu	$2,$2,48
80000624:	10000003 	beqz	$0,80000634 <_Z9printbaseliii+0x160>
80000628:	00000000 	sll	$0,$0,0x0
8000062c:	8fc20020 	lw	$2,32($30)
80000630:	24420057 	addiu	$2,$2,87
80000634:	00402025 	or	$4,$2,$0
80000638:	0c000100 	jal	80000400 <_Z7putchari>
8000063c:	00000000 	sll	$0,$0,0x0
80000640:	8fc20018 	lw	$2,24($30)
80000644:	2442ffff 	addiu	$2,$2,-1
80000648:	afc20018 	sw	$2,24($30)
8000064c:	1000ffde 	beqz	$0,800005c8 <_Z9printbaseliii+0xf4>
80000650:	00000000 	sll	$0,$0,0x0
80000654:	00001025 	or	$2,$0,$0
80000658:	03c0e825 	or	$29,$30,$0
8000065c:	8fbf006c 	lw	$31,108($29)
80000660:	8fbe0068 	lw	$30,104($29)
80000664:	27bd0070 	addiu	$29,$29,112
80000668:	03e00008 	jr	$31
8000066c:	00000000 	sll	$0,$0,0x0

80000670 <main>:
80000670:	27bdffa8 	addiu	$29,$29,-88
80000674:	afbf0054 	sw	$31,84($29)
80000678:	afbe0050 	sw	$30,80($29)
8000067c:	03a0f025 	or	$30,$29,$0
80000680:	3c028000 	lui	$2,0x8000
80000684:	24440d70 	addiu	$4,$2,3440
80000688:	0c000111 	jal	80000444 <_Z9putstringPKc>
8000068c:	00000000 	sll	$0,$0,0x0
80000690:	3c02bb00 	lui	$2,0xbb00
80000694:	344201ff 	ori	$2,$2,0x1ff
80000698:	afc20038 	sw	$2,56($30)
8000069c:	8fc20038 	lw	$2,56($30)
800006a0:	a0400000 	sb	$0,0($2)
800006a4:	3c02bc00 	lui	$2,0xbc00
800006a8:	344201ff 	ori	$2,$2,0x1ff
800006ac:	afc2003c 	sw	$2,60($30)
800006b0:	8fc2003c 	lw	$2,60($30)
800006b4:	a0400000 	sb	$0,0($2)
800006b8:	3c028000 	lui	$2,0x8000
800006bc:	24440d88 	addiu	$4,$2,3464
800006c0:	0c000111 	jal	80000444 <_Z9putstringPKc>
800006c4:	00000000 	sll	$0,$0,0x0
800006c8:	8fc20038 	lw	$2,56($30)
800006cc:	90420000 	lbu	$2,0($2)
800006d0:	a3c20020 	sb	$2,32($30)
800006d4:	93c20020 	lbu	$2,32($30)
800006d8:	00003825 	or	$7,$0,$0
800006dc:	2406000a 	addiu	$6,$0,10
800006e0:	24050001 	addiu	$5,$0,1
800006e4:	00402025 	or	$4,$2,$0
800006e8:	0c000135 	jal	800004d4 <_Z9printbaseliii>
800006ec:	00000000 	sll	$0,$0,0x0
800006f0:	3c028000 	lui	$2,0x8000
800006f4:	24440dac 	addiu	$4,$2,3500
800006f8:	0c000111 	jal	80000444 <_Z9putstringPKc>
800006fc:	00000000 	sll	$0,$0,0x0
80000700:	93c20020 	lbu	$2,32($30)
80000704:	14400006 	bnez	$2,80000720 <main+0xb0>
80000708:	00000000 	sll	$0,$0,0x0
8000070c:	8fc20038 	lw	$2,56($30)
80000710:	90420000 	lbu	$2,0($2)
80000714:	a3c20020 	sb	$2,32($30)
80000718:	1000fff9 	beqz	$0,80000700 <main+0x90>
8000071c:	00000000 	sll	$0,$0,0x0
80000720:	3c028000 	lui	$2,0x8000
80000724:	24440db0 	addiu	$4,$2,3504
80000728:	0c000111 	jal	80000444 <_Z9putstringPKc>
8000072c:	00000000 	sll	$0,$0,0x0
80000730:	8fc20038 	lw	$2,56($30)
80000734:	90420000 	lbu	$2,0($2)
80000738:	a3c20020 	sb	$2,32($30)
8000073c:	93c20020 	lbu	$2,32($30)
80000740:	00003825 	or	$7,$0,$0
80000744:	2406000a 	addiu	$6,$0,10
80000748:	24050001 	addiu	$5,$0,1
8000074c:	00402025 	or	$4,$2,$0
80000750:	0c000135 	jal	800004d4 <_Z9printbaseliii>
80000754:	00000000 	sll	$0,$0,0x0
80000758:	3c028000 	lui	$2,0x8000
8000075c:	24440dac 	addiu	$4,$2,3500
80000760:	0c000111 	jal	80000444 <_Z9putstringPKc>
80000764:	00000000 	sll	$0,$0,0x0
80000768:	3c02bb00 	lui	$2,0xbb00
8000076c:	344201fc 	ori	$2,$2,0x1fc
80000770:	afc20018 	sw	$2,24($30)
80000774:	3c02bb00 	lui	$2,0xbb00
80000778:	344201fd 	ori	$2,$2,0x1fd
8000077c:	afc20040 	sw	$2,64($30)
80000780:	3c02bb00 	lui	$2,0xbb00
80000784:	344201fe 	ori	$2,$2,0x1fe
80000788:	afc20044 	sw	$2,68($30)
8000078c:	8fc20018 	lw	$2,24($30)
80000790:	90420000 	lbu	$2,0($2)
80000794:	304200ff 	andi	$2,$2,0xff
80000798:	00401825 	or	$3,$2,$0
8000079c:	8fc20040 	lw	$2,64($30)
800007a0:	90420000 	lbu	$2,0($2)
800007a4:	304200ff 	andi	$2,$2,0xff
800007a8:	00021200 	sll	$2,$2,0x8
800007ac:	00621821 	addu	$3,$3,$2
800007b0:	8fc20044 	lw	$2,68($30)
800007b4:	90420000 	lbu	$2,0($2)
800007b8:	304200ff 	andi	$2,$2,0xff
800007bc:	00021400 	sll	$2,$2,0x10
800007c0:	00621021 	addu	$2,$3,$2
800007c4:	afc20048 	sw	$2,72($30)
800007c8:	3c02bb00 	lui	$2,0xbb00
800007cc:	afc20018 	sw	$2,24($30)
800007d0:	afc00024 	sw	$0,36($30)
800007d4:	8fc20048 	lw	$2,72($30)
800007d8:	8fc30024 	lw	$3,36($30)
800007dc:	0062102a 	slt	$2,$3,$2
800007e0:	10400020 	beqz	$2,80000864 <main+0x1f4>
800007e4:	00000000 	sll	$0,$0,0x0
800007e8:	8fc20018 	lw	$2,24($30)
800007ec:	90420000 	lbu	$2,0($2)
800007f0:	304300ff 	andi	$3,$2,0xff
800007f4:	3c028000 	lui	$2,0x8000
800007f8:	24440f30 	addiu	$4,$2,3888
800007fc:	8fc20024 	lw	$2,36($30)
80000800:	00821021 	addu	$2,$4,$2
80000804:	a0430000 	sb	$3,0($2)
80000808:	3c028000 	lui	$2,0x8000
8000080c:	24430f30 	addiu	$3,$2,3888
80000810:	8fc20024 	lw	$2,36($30)
80000814:	00621021 	addu	$2,$3,$2
80000818:	90420000 	lbu	$2,0($2)
8000081c:	00003825 	or	$7,$0,$0
80000820:	24060010 	addiu	$6,$0,16
80000824:	24050002 	addiu	$5,$0,2
80000828:	00402025 	or	$4,$2,$0
8000082c:	0c000135 	jal	800004d4 <_Z9printbaseliii>
80000830:	00000000 	sll	$0,$0,0x0
80000834:	3c028000 	lui	$2,0x8000
80000838:	24440dcc 	addiu	$4,$2,3532
8000083c:	0c000111 	jal	80000444 <_Z9putstringPKc>
80000840:	00000000 	sll	$0,$0,0x0
80000844:	8fc20024 	lw	$2,36($30)
80000848:	24420001 	addiu	$2,$2,1
8000084c:	afc20024 	sw	$2,36($30)
80000850:	8fc20018 	lw	$2,24($30)
80000854:	24420001 	addiu	$2,$2,1
80000858:	afc20018 	sw	$2,24($30)
8000085c:	1000ffdd 	beqz	$0,800007d4 <main+0x164>
80000860:	00000000 	sll	$0,$0,0x0
80000864:	3c028000 	lui	$2,0x8000
80000868:	24440dd0 	addiu	$4,$2,3536
8000086c:	0c000111 	jal	80000444 <_Z9putstringPKc>
80000870:	00000000 	sll	$0,$0,0x0
80000874:	8fc20048 	lw	$2,72($30)
80000878:	00003825 	or	$7,$0,$0
8000087c:	2406000a 	addiu	$6,$0,10
80000880:	24050001 	addiu	$5,$0,1
80000884:	00402025 	or	$4,$2,$0
80000888:	0c000135 	jal	800004d4 <_Z9printbaseliii>
8000088c:	00000000 	sll	$0,$0,0x0
80000890:	2404000a 	addiu	$4,$0,10
80000894:	0c000100 	jal	80000400 <_Z7putchari>
80000898:	00000000 	sll	$0,$0,0x0
8000089c:	8fc20038 	lw	$2,56($30)
800008a0:	a0400000 	sb	$0,0($2)
800008a4:	afc00028 	sw	$0,40($30)
800008a8:	8fc20028 	lw	$2,40($30)
800008ac:	2842000c 	slti	$2,$2,12
800008b0:	10400010 	beqz	$2,800008f4 <main+0x284>
800008b4:	00000000 	sll	$0,$0,0x0
800008b8:	3c028000 	lui	$2,0x8000
800008bc:	24430f30 	addiu	$3,$2,3888
800008c0:	8fc20028 	lw	$2,40($30)
800008c4:	00621021 	addu	$2,$3,$2
800008c8:	90430000 	lbu	$3,0($2)
800008cc:	3c028000 	lui	$2,0x8000
800008d0:	24441134 	addiu	$4,$2,4404
800008d4:	8fc20028 	lw	$2,40($30)
800008d8:	00821021 	addu	$2,$4,$2
800008dc:	a0430000 	sb	$3,0($2)
800008e0:	8fc20028 	lw	$2,40($30)
800008e4:	24420001 	addiu	$2,$2,1
800008e8:	afc20028 	sw	$2,40($30)
800008ec:	1000ffee 	beqz	$0,800008a8 <main+0x238>
800008f0:	00000000 	sll	$0,$0,0x0
800008f4:	00003825 	or	$7,$0,$0
800008f8:	2406000a 	addiu	$6,$0,10
800008fc:	24050001 	addiu	$5,$0,1
80000900:	8fc40028 	lw	$4,40($30)
80000904:	0c000135 	jal	800004d4 <_Z9printbaseliii>
80000908:	00000000 	sll	$0,$0,0x0
8000090c:	afc0002c 	sw	$0,44($30)
80000910:	8fc2002c 	lw	$2,44($30)
80000914:	28420006 	slti	$2,$2,6
80000918:	1040001c 	beqz	$2,8000098c <main+0x31c>
8000091c:	00000000 	sll	$0,$0,0x0
80000920:	8fc2002c 	lw	$2,44($30)
80000924:	24430006 	addiu	$3,$2,6
80000928:	3c028000 	lui	$2,0x8000
8000092c:	24421134 	addiu	$2,$2,4404
80000930:	00621021 	addu	$2,$3,$2
80000934:	90430000 	lbu	$3,0($2)
80000938:	3c028000 	lui	$2,0x8000
8000093c:	24440f30 	addiu	$4,$2,3888
80000940:	8fc2002c 	lw	$2,44($30)
80000944:	00821021 	addu	$2,$4,$2
80000948:	a0430000 	sb	$3,0($2)
8000094c:	8fc2002c 	lw	$2,44($30)
80000950:	24440006 	addiu	$4,$2,6
80000954:	3c028000 	lui	$2,0x8000
80000958:	24431134 	addiu	$3,$2,4404
8000095c:	8fc2002c 	lw	$2,44($30)
80000960:	00621021 	addu	$2,$3,$2
80000964:	90430000 	lbu	$3,0($2)
80000968:	3c028000 	lui	$2,0x8000
8000096c:	24420f30 	addiu	$2,$2,3888
80000970:	00821021 	addu	$2,$4,$2
80000974:	a0430000 	sb	$3,0($2)
80000978:	8fc2002c 	lw	$2,44($30)
8000097c:	24420001 	addiu	$2,$2,1
80000980:	afc2002c 	sw	$2,44($30)
80000984:	1000ffe2 	beqz	$0,80000910 <main+0x2a0>
80000988:	00000000 	sll	$0,$0,0x0
8000098c:	3c028000 	lui	$2,0x8000
80000990:	24440de4 	addiu	$4,$2,3556
80000994:	0c000111 	jal	80000444 <_Z9putstringPKc>
80000998:	00000000 	sll	$0,$0,0x0
8000099c:	8fc2003c 	lw	$2,60($30)
800009a0:	90420000 	lbu	$2,0($2)
800009a4:	a3c20020 	sb	$2,32($30)
800009a8:	93c20020 	lbu	$2,32($30)
800009ac:	00003825 	or	$7,$0,$0
800009b0:	2406000a 	addiu	$6,$0,10
800009b4:	24050001 	addiu	$5,$0,1
800009b8:	00402025 	or	$4,$2,$0
800009bc:	0c000135 	jal	800004d4 <_Z9printbaseliii>
800009c0:	00000000 	sll	$0,$0,0x0
800009c4:	3c028000 	lui	$2,0x8000
800009c8:	24440dac 	addiu	$4,$2,3500
800009cc:	0c000111 	jal	80000444 <_Z9putstringPKc>
800009d0:	00000000 	sll	$0,$0,0x0
800009d4:	93c30020 	lbu	$3,32($30)
800009d8:	240200ff 	addiu	$2,$0,255
800009dc:	14620006 	bne	$3,$2,800009f8 <main+0x388>
800009e0:	00000000 	sll	$0,$0,0x0
800009e4:	8fc2003c 	lw	$2,60($30)
800009e8:	90420000 	lbu	$2,0($2)
800009ec:	a3c20020 	sb	$2,32($30)
800009f0:	1000fff8 	beqz	$0,800009d4 <main+0x364>
800009f4:	00000000 	sll	$0,$0,0x0
800009f8:	3c02bc00 	lui	$2,0xbc00
800009fc:	344201fc 	ori	$2,$2,0x1fc
80000a00:	afc20018 	sw	$2,24($30)
80000a04:	3c02bc00 	lui	$2,0xbc00
80000a08:	344201fd 	ori	$2,$2,0x1fd
80000a0c:	afc20040 	sw	$2,64($30)
80000a10:	3c02bc00 	lui	$2,0xbc00
80000a14:	344201fe 	ori	$2,$2,0x1fe
80000a18:	afc20044 	sw	$2,68($30)
80000a1c:	8fc20048 	lw	$2,72($30)
80000a20:	304300ff 	andi	$3,$2,0xff
80000a24:	8fc20018 	lw	$2,24($30)
80000a28:	a0430000 	sb	$3,0($2)
80000a2c:	8fc20048 	lw	$2,72($30)
80000a30:	00021202 	srl	$2,$2,0x8
80000a34:	304300ff 	andi	$3,$2,0xff
80000a38:	8fc20040 	lw	$2,64($30)
80000a3c:	a0430000 	sb	$3,0($2)
80000a40:	8fc20048 	lw	$2,72($30)
80000a44:	00021402 	srl	$2,$2,0x10
80000a48:	304300ff 	andi	$3,$2,0xff
80000a4c:	8fc20044 	lw	$2,68($30)
80000a50:	a0430000 	sb	$3,0($2)
80000a54:	3c02bc00 	lui	$2,0xbc00
80000a58:	afc2001c 	sw	$2,28($30)
80000a5c:	3c028000 	lui	$2,0x8000
80000a60:	24440e10 	addiu	$4,$2,3600
80000a64:	0c000111 	jal	80000444 <_Z9putstringPKc>
80000a68:	00000000 	sll	$0,$0,0x0
80000a6c:	8fc20048 	lw	$2,72($30)
80000a70:	00003825 	or	$7,$0,$0
80000a74:	2406000a 	addiu	$6,$0,10
80000a78:	24050001 	addiu	$5,$0,1
80000a7c:	00402025 	or	$4,$2,$0
80000a80:	0c000135 	jal	800004d4 <_Z9printbaseliii>
80000a84:	00000000 	sll	$0,$0,0x0
80000a88:	2404000a 	addiu	$4,$0,10
80000a8c:	0c000100 	jal	80000400 <_Z7putchari>
80000a90:	00000000 	sll	$0,$0,0x0
80000a94:	afc00030 	sw	$0,48($30)
80000a98:	8fc20048 	lw	$2,72($30)
80000a9c:	8fc30030 	lw	$3,48($30)
80000aa0:	0062102a 	slt	$2,$3,$2
80000aa4:	10400020 	beqz	$2,80000b28 <main+0x4b8>
80000aa8:	00000000 	sll	$0,$0,0x0
80000aac:	3c028000 	lui	$2,0x8000
80000ab0:	24430f30 	addiu	$3,$2,3888
80000ab4:	8fc20030 	lw	$2,48($30)
80000ab8:	00621021 	addu	$2,$3,$2
80000abc:	90420000 	lbu	$2,0($2)
80000ac0:	a3c20020 	sb	$2,32($30)
80000ac4:	8fc20030 	lw	$2,48($30)
80000ac8:	304300ff 	andi	$3,$2,0xff
80000acc:	8fc2001c 	lw	$2,28($30)
80000ad0:	a0430000 	sb	$3,0($2)
80000ad4:	8fc2001c 	lw	$2,28($30)
80000ad8:	90420000 	lbu	$2,0($2)
80000adc:	304200ff 	andi	$2,$2,0xff
80000ae0:	00003825 	or	$7,$0,$0
80000ae4:	24060010 	addiu	$6,$0,16
80000ae8:	24050002 	addiu	$5,$0,2
80000aec:	00402025 	or	$4,$2,$0
80000af0:	0c000135 	jal	800004d4 <_Z9printbaseliii>
80000af4:	00000000 	sll	$0,$0,0x0
80000af8:	3c028000 	lui	$2,0x8000
80000afc:	24440dcc 	addiu	$4,$2,3532
80000b00:	0c000111 	jal	80000444 <_Z9putstringPKc>
80000b04:	00000000 	sll	$0,$0,0x0
80000b08:	8fc20030 	lw	$2,48($30)
80000b0c:	24420001 	addiu	$2,$2,1
80000b10:	afc20030 	sw	$2,48($30)
80000b14:	8fc2001c 	lw	$2,28($30)
80000b18:	24420001 	addiu	$2,$2,1
80000b1c:	afc2001c 	sw	$2,28($30)
80000b20:	1000ffdd 	beqz	$0,80000a98 <main+0x428>
80000b24:	00000000 	sll	$0,$0,0x0
80000b28:	8fc2003c 	lw	$2,60($30)
80000b2c:	2442fffd 	addiu	$2,$2,-3
80000b30:	90420000 	lbu	$2,0($2)
80000b34:	304200ff 	andi	$2,$2,0xff
80000b38:	00003825 	or	$7,$0,$0
80000b3c:	24060010 	addiu	$6,$0,16
80000b40:	24050002 	addiu	$5,$0,2
80000b44:	00402025 	or	$4,$2,$0
80000b48:	0c000135 	jal	800004d4 <_Z9printbaseliii>
80000b4c:	00000000 	sll	$0,$0,0x0
80000b50:	8fc2003c 	lw	$2,60($30)
80000b54:	2442fffe 	addiu	$2,$2,-2
80000b58:	90420000 	lbu	$2,0($2)
80000b5c:	304200ff 	andi	$2,$2,0xff
80000b60:	00003825 	or	$7,$0,$0
80000b64:	24060010 	addiu	$6,$0,16
80000b68:	24050002 	addiu	$5,$0,2
80000b6c:	00402025 	or	$4,$2,$0
80000b70:	0c000135 	jal	800004d4 <_Z9printbaseliii>
80000b74:	00000000 	sll	$0,$0,0x0
80000b78:	8fc2003c 	lw	$2,60($30)
80000b7c:	2442ffff 	addiu	$2,$2,-1
80000b80:	90420000 	lbu	$2,0($2)
80000b84:	304200ff 	andi	$2,$2,0xff
80000b88:	00003825 	or	$7,$0,$0
80000b8c:	24060010 	addiu	$6,$0,16
80000b90:	24050002 	addiu	$5,$0,2
80000b94:	00402025 	or	$4,$2,$0
80000b98:	0c000135 	jal	800004d4 <_Z9printbaseliii>
80000b9c:	00000000 	sll	$0,$0,0x0
80000ba0:	8fc2003c 	lw	$2,60($30)
80000ba4:	90420000 	lbu	$2,0($2)
80000ba8:	304200ff 	andi	$2,$2,0xff
80000bac:	00003825 	or	$7,$0,$0
80000bb0:	24060010 	addiu	$6,$0,16
80000bb4:	24050002 	addiu	$5,$0,2
80000bb8:	00402025 	or	$4,$2,$0
80000bbc:	0c000135 	jal	800004d4 <_Z9printbaseliii>
80000bc0:	00000000 	sll	$0,$0,0x0
80000bc4:	2404000a 	addiu	$4,$0,10
80000bc8:	0c000100 	jal	80000400 <_Z7putchari>
80000bcc:	00000000 	sll	$0,$0,0x0
80000bd0:	8fc2003c 	lw	$2,60($30)
80000bd4:	2403ffff 	addiu	$3,$0,-1
80000bd8:	a0430000 	sb	$3,0($2)
80000bdc:	8fc2003c 	lw	$2,60($30)
80000be0:	2442fffd 	addiu	$2,$2,-3
80000be4:	90420000 	lbu	$2,0($2)
80000be8:	304200ff 	andi	$2,$2,0xff
80000bec:	00003825 	or	$7,$0,$0
80000bf0:	24060010 	addiu	$6,$0,16
80000bf4:	24050002 	addiu	$5,$0,2
80000bf8:	00402025 	or	$4,$2,$0
80000bfc:	0c000135 	jal	800004d4 <_Z9printbaseliii>
80000c00:	00000000 	sll	$0,$0,0x0
80000c04:	8fc2003c 	lw	$2,60($30)
80000c08:	2442fffe 	addiu	$2,$2,-2
80000c0c:	90420000 	lbu	$2,0($2)
80000c10:	304200ff 	andi	$2,$2,0xff
80000c14:	00003825 	or	$7,$0,$0
80000c18:	24060010 	addiu	$6,$0,16
80000c1c:	24050002 	addiu	$5,$0,2
80000c20:	00402025 	or	$4,$2,$0
80000c24:	0c000135 	jal	800004d4 <_Z9printbaseliii>
80000c28:	00000000 	sll	$0,$0,0x0
80000c2c:	8fc2003c 	lw	$2,60($30)
80000c30:	2442ffff 	addiu	$2,$2,-1
80000c34:	90420000 	lbu	$2,0($2)
80000c38:	304200ff 	andi	$2,$2,0xff
80000c3c:	00003825 	or	$7,$0,$0
80000c40:	24060010 	addiu	$6,$0,16
80000c44:	24050002 	addiu	$5,$0,2
80000c48:	00402025 	or	$4,$2,$0
80000c4c:	0c000135 	jal	800004d4 <_Z9printbaseliii>
80000c50:	00000000 	sll	$0,$0,0x0
80000c54:	8fc2003c 	lw	$2,60($30)
80000c58:	90420000 	lbu	$2,0($2)
80000c5c:	304200ff 	andi	$2,$2,0xff
80000c60:	00003825 	or	$7,$0,$0
80000c64:	24060010 	addiu	$6,$0,16
80000c68:	24050002 	addiu	$5,$0,2
80000c6c:	00402025 	or	$4,$2,$0
80000c70:	0c000135 	jal	800004d4 <_Z9printbaseliii>
80000c74:	00000000 	sll	$0,$0,0x0
80000c78:	2404000a 	addiu	$4,$0,10
80000c7c:	0c000100 	jal	80000400 <_Z7putchari>
80000c80:	00000000 	sll	$0,$0,0x0
80000c84:	afc00034 	sw	$0,52($30)
80000c88:	8fc30034 	lw	$3,52($30)
80000c8c:	3c02000f 	lui	$2,0xf
80000c90:	34424240 	ori	$2,$2,0x4240
80000c94:	0062102a 	slt	$2,$3,$2
80000c98:	10400006 	beqz	$2,80000cb4 <main+0x644>
80000c9c:	00000000 	sll	$0,$0,0x0
80000ca0:	8fc20034 	lw	$2,52($30)
80000ca4:	24420001 	addiu	$2,$2,1
80000ca8:	afc20034 	sw	$2,52($30)
80000cac:	1000fff6 	beqz	$0,80000c88 <main+0x618>
80000cb0:	00000000 	sll	$0,$0,0x0
80000cb4:	8fc2003c 	lw	$2,60($30)
80000cb8:	2442fffd 	addiu	$2,$2,-3
80000cbc:	90420000 	lbu	$2,0($2)
80000cc0:	304200ff 	andi	$2,$2,0xff
80000cc4:	00003825 	or	$7,$0,$0
80000cc8:	24060010 	addiu	$6,$0,16
80000ccc:	24050002 	addiu	$5,$0,2
80000cd0:	00402025 	or	$4,$2,$0
80000cd4:	0c000135 	jal	800004d4 <_Z9printbaseliii>
80000cd8:	00000000 	sll	$0,$0,0x0
80000cdc:	8fc2003c 	lw	$2,60($30)
80000ce0:	2442fffe 	addiu	$2,$2,-2
80000ce4:	90420000 	lbu	$2,0($2)
80000ce8:	304200ff 	andi	$2,$2,0xff
80000cec:	00003825 	or	$7,$0,$0
80000cf0:	24060010 	addiu	$6,$0,16
80000cf4:	24050002 	addiu	$5,$0,2
80000cf8:	00402025 	or	$4,$2,$0
80000cfc:	0c000135 	jal	800004d4 <_Z9printbaseliii>
80000d00:	00000000 	sll	$0,$0,0x0
80000d04:	8fc2003c 	lw	$2,60($30)
80000d08:	2442ffff 	addiu	$2,$2,-1
80000d0c:	90420000 	lbu	$2,0($2)
80000d10:	304200ff 	andi	$2,$2,0xff
80000d14:	00003825 	or	$7,$0,$0
80000d18:	24060010 	addiu	$6,$0,16
80000d1c:	24050002 	addiu	$5,$0,2
80000d20:	00402025 	or	$4,$2,$0
80000d24:	0c000135 	jal	800004d4 <_Z9printbaseliii>
80000d28:	00000000 	sll	$0,$0,0x0
80000d2c:	8fc2003c 	lw	$2,60($30)
80000d30:	90420000 	lbu	$2,0($2)
80000d34:	304200ff 	andi	$2,$2,0xff
80000d38:	00003825 	or	$7,$0,$0
80000d3c:	24060010 	addiu	$6,$0,16
80000d40:	24050002 	addiu	$5,$0,2
80000d44:	00402025 	or	$4,$2,$0
80000d48:	0c000135 	jal	800004d4 <_Z9printbaseliii>
80000d4c:	00000000 	sll	$0,$0,0x0
80000d50:	2404000a 	addiu	$4,$0,10
80000d54:	0c000100 	jal	80000400 <_Z7putchari>
80000d58:	00000000 	sll	$0,$0,0x0
80000d5c:	1000ffc9 	beqz	$0,80000c84 <main+0x614>
80000d60:	00000000 	sll	$0,$0,0x0
	...

Disassembly of section .rodata:

80000d70 <.rodata>:
80000d70:	74736574 	jalx	81cd95d0 <macpacket+0x1cd849c>
80000d74:	6f6f6c20 	0x6f6f6c20
80000d78:	63616270 	0x63616270
80000d7c:	7473206b 	jalx	81cc81ac <macpacket+0x1cc7078>
80000d80:	65747261 	0x65747261
80000d84:	00000a64 	0xa64
80000d88:	74696177 	jalx	81a585dc <macpacket+0x1a574a8>
80000d8c:	20676e69 	addi	$7,$3,28265
80000d90:	20726f66 	addi	$18,$3,28518
80000d94:	61702061 	0x61702061
80000d98:	74656b63 	jalx	8195ad8c <macpacket+0x1959c58>
80000d9c:	6168202c 	0x6168202c
80000da0:	526f7473 	beql	$19,$15,8001df70 <macpacket+0x1ce3c>
80000da4:	3d646165 	0x3d646165
80000da8:	00000000 	sll	$0,$0,0x0
80000dac:	0000000a 	movz	$0,$0,$0
80000db0:	20746f67 	addi	$20,$3,28519
80000db4:	61702061 	0x61702061
80000db8:	74656b63 	jalx	8195ad8c <macpacket+0x1959c58>
80000dbc:	6168202c 	0x6168202c
80000dc0:	526f7473 	beql	$19,$15,8001df90 <macpacket+0x1ce5c>
80000dc4:	3d646165 	0x3d646165
80000dc8:	00000000 	sll	$0,$0,0x0
80000dcc:	00000020 	add	$0,$0,$0
80000dd0:	6365720a 	0x6365720a
80000dd4:	65766965 	0x65766965
80000dd8:	656c2064 	0x656c2064
80000ddc:	6874676e 	0x6874676e
80000de0:	00000020 	add	$0,$0,$0
80000de4:	6961570a 	0x6961570a
80000de8:	676e6974 	0x676e6974
80000dec:	206f7420 	addi	$15,$3,29728
80000df0:	61206562 	0x61206562
80000df4:	20656c62 	addi	$5,$3,27746
80000df8:	77206f74 	jalx	8c81bdd0 <macpacket+0xc81ac9c>
80000dfc:	65746972 	0x65746972
80000e00:	6168202c 	0x6168202c
80000e04:	576f7473 	bnel	$27,$15,8001dfd4 <macpacket+0x1cea0>
80000e08:	65746972 	0x65746972
80000e0c:	00000a3d 	0xa3d
80000e10:	79616b6f 	0x79616b6f
80000e14:	206f7420 	addi	$15,$3,29728
80000e18:	61702061 	0x61702061
80000e1c:	74656b63 	jalx	8195ad8c <macpacket+0x1959c58>
80000e20:	656c202c 	0x656c202c
80000e24:	6874676e 	0x6874676e
80000e28:	0000003d 	0x3d
80000e2c:	00000000 	sll	$0,$0,0x0

Disassembly of section .reginfo:

80000e30 <.reginfo>:
80000e30:	e00000fc 	sc	$0,252($0)
	...

Disassembly of section .MIPS.abiflags:

80000e48 <.MIPS.abiflags>:
80000e48:	02200000 	0x2200000
80000e4c:	01000101 	0x1000101
	...
80000e58:	00000001 	movf	$0,$0,$fcc0
80000e5c:	00000000 	sll	$0,$0,0x0

Disassembly of section .eh_frame:

80000e60 <.eh_frame>:
80000e60:	00000010 	mfhi	$0
80000e64:	00000000 	sll	$0,$0,0x0
80000e68:	00527a01 	0x527a01
80000e6c:	011f7c01 	0x11f7c01
80000e70:	001d0d0b 	0x1d0d0b
80000e74:	00000020 	add	$0,$0,$0
80000e78:	00000018 	mult	$0,$0
80000e7c:	80000390 	lb	$0,912($0)
80000e80:	00000070 	tge	$0,$0,0x1
80000e84:	180e4400 	0x180e4400
80000e88:	44019e44 	0x44019e44
80000e8c:	54021e0d 	bnel	$0,$2,800086c4 <macpacket+0x7590>
80000e90:	de481d0d 	ldc3	$8,7437($18)
80000e94:	0000000e 	0xe
80000e98:	00000020 	add	$0,$0,$0
80000e9c:	0000003c 	0x3c
80000ea0:	80000400 	lb	$0,1024($0)
80000ea4:	00000044 	0x44
80000ea8:	200e4400 	addi	$14,$0,17408
80000eac:	9e019f48 	0x9e019f48
80000eb0:	1e0d4402 	0x1e0d4402
80000eb4:	4c1d0d60 	madd.s	$f21,$f0,$f1,$f29
80000eb8:	000edfde 	0xedfde
80000ebc:	00000024 	and	$0,$0,$0
80000ec0:	00000060 	0x60
80000ec4:	80000444 	lb	$0,1092($0)
80000ec8:	00000090 	0x90
80000ecc:	280e4400 	slti	$14,$0,17408
80000ed0:	9e019f48 	0x9e019f48
80000ed4:	1e0d4402 	0x1e0d4402
80000ed8:	1d0d6c02 	0x1d0d6c02
80000edc:	0edfde4c 	jal	8b7f7930 <macpacket+0xb7f67fc>
80000ee0:	00000000 	sll	$0,$0,0x0
80000ee4:	00000024 	and	$0,$0,$0
80000ee8:	00000088 	0x88
80000eec:	800004d4 	lb	$0,1236($0)
80000ef0:	0000019c 	0x19c
80000ef4:	700e4400 	0x700e4400
80000ef8:	9e019f48 	0x9e019f48
80000efc:	1e0d4402 	0x1e0d4402
80000f00:	0d017803 	jal	8405e00c <macpacket+0x405ced8>
80000f04:	dfde4c1d 	ldc3	$30,19485($30)
80000f08:	0000000e 	0xe
80000f0c:	00000018 	mult	$0,$0
80000f10:	000000b0 	tge	$0,$0,0x2
80000f14:	80000670 	lb	$0,1648($0)
80000f18:	000006f4 	teq	$0,$0,0x1b
80000f1c:	580e4400 	0x580e4400
80000f20:	9e019f48 	0x9e019f48
80000f24:	1e0d4402 	0x1e0d4402

Disassembly of section .bss:

80000f30 <packet>:
	...

80001134 <macpacket>:
	...

Disassembly of section .pdr:

00000000 <.pdr>:
   0:	80000390 	lb	$0,912($0)
   4:	40000000 	mfc0	$0,c0_index
   8:	fffffffc 	sdc3	$31,-4($31)
	...
  14:	00000018 	mult	$0,$0
  18:	0000001e 	0x1e
  1c:	0000001f 	0x1f
  20:	80000400 	lb	$0,1024($0)
  24:	c0000000 	ll	$0,0($0)
  28:	fffffffc 	sdc3	$31,-4($31)
	...
  34:	00000020 	add	$0,$0,$0
  38:	0000001e 	0x1e
  3c:	0000001f 	0x1f
  40:	80000444 	lb	$0,1092($0)
  44:	c0000000 	ll	$0,0($0)
  48:	fffffffc 	sdc3	$31,-4($31)
	...
  54:	00000028 	0x28
  58:	0000001e 	0x1e
  5c:	0000001f 	0x1f
  60:	800004d4 	lb	$0,1236($0)
  64:	c0000000 	ll	$0,0($0)
  68:	fffffffc 	sdc3	$31,-4($31)
	...
  74:	00000070 	tge	$0,$0,0x1
  78:	0000001e 	0x1e
  7c:	0000001f 	0x1f
  80:	80000670 	lb	$0,1648($0)
  84:	c0000000 	ll	$0,0($0)
  88:	fffffffc 	sdc3	$31,-4($31)
	...
  94:	00000058 	0x58
  98:	0000001e 	0x1e
  9c:	0000001f 	0x1f

Disassembly of section .comment:

00000000 <.comment>:
   0:	3a434347 	xori	$3,$18,0x4347
   4:	62552820 	0x62552820
   8:	75746e75 	jalx	5d1b9d4 <__start-0x7a2e462c>
   c:	342e3720 	ori	$14,$1,0x3720
  10:	312d302e 	andi	$13,$9,0x302e
  14:	6e756275 	0x6e756275
  18:	7e317574 	0x7e317574
  1c:	302e3831 	andi	$14,$1,0x3831
  20:	29312e34 	slti	$17,$9,11828
  24:	342e3720 	ori	$14,$1,0x3720
  28:	Address 0x0000000000000028 is out of bounds.


Disassembly of section .gnu.attributes:

00000000 <.gnu.attributes>:
   0:	00000f41 	0xf41
   4:	756e6700 	jalx	5b99c00 <__start-0x7a466400>
   8:	00070100 	sll	$0,$7,0x4
   c:	01040000 	0x1040000
